(dp1
F0.5
(lp2
((lp3
I14
aI10
aI10
a(lp4
(I0
I154
tp5
a(I1
I155
tp6
a(I2
I271
tp7
a(I3
I272
tp8
a(I4
I299
tp9
a(I5
I344
tp10
a(I6
I345
tp11
a(I7
I346
tp12
a(I8
I377
tp13
a(I9
I433
tp14
a(I10
I434
tp15
a(I11
I493
tp16
a(I12
I514
tp17
a(I13
I655
tp18
aI31
tp19
a((lp20
I14
aI11
aI10
a(lp21
(I0
I100
tp22
a(I1
I156
tp23
a(I3
I262
tp24
a(I4
I271
tp25
a(I5
I322
tp26
a(I6
I404
tp27
a(I7
I405
tp28
a(I8
I410
tp29
a(I9
I455
tp30
a(I10
I460
tp31
a(I11
I464
tp32
a(I12
I487
tp33
a(I13
I515
tp34
a(I14
I683
tp35
aI32
tp36
a((lp37
I19
aI11
aI10
a(lp38
(I0
I211
tp39
a(I1
I245
tp40
a(I2
I248
tp41
a(I3
I269
tp42
a(I4
I325
tp43
a(I5
I328
tp44
a(I6
I329
tp45
a(I7
I351
tp46
a(I8
I372
tp47
a(I9
I433
tp48
a(I10
I454
tp49
a(I11
I485
tp50
a(I12
I515
tp51
a(I13
I518
tp52
a(I14
I539
tp53
a(I15
I567
tp54
a(I16
I574
tp55
a(I17
I625
tp56
a(I18
I628
tp57
aI38
tp58
a((lp59
I18
aI11
aI10
a(lp60
(I0
I154
tp61
a(I1
I157
tp62
a(I2
I211
tp63
a(I3
I219
tp64
a(I4
I269
tp65
a(I5
I270
tp66
a(I6
I292
tp67
a(I7
I316
tp68
a(I8
I328
tp69
a(I9
I377
tp70
a(I10
I410
tp71
a(I11
I457
tp72
a(I12
I460
tp73
a(I13
I462
tp74
a(I14
I515
tp75
a(I15
I594
tp76
a(I16
I595
tp77
a(I17
I655
tp78
aI34
tp79
a((lp80
I15
aI12
aI10
a(lp81
(I0
I153
tp82
a(I1
I211
tp83
a(I2
I219
tp84
a(I3
I247
tp85
a(I4
I319
tp86
a(I5
I330
tp87
a(I6
I344
tp88
a(I7
I377
tp89
a(I8
I434
tp90
a(I9
I459
tp91
a(I10
I485
tp92
a(I11
I494
tp93
a(I12
I516
tp94
a(I13
I540
tp95
a(I14
I656
tp96
aI32
tp97
asF0.80000000000000004
(lp98
((lp99
I62
aI17
aI10
a(lp100
(I0
I128
tp101
a(I1
I154
tp102
a(I2
I156
tp103
a(I3
I158
tp104
a(I4
I182
tp105
a(I5
I183
tp106
a(I6
I207
tp107
a(I7
I211
tp108
a(I8
I213
tp109
a(I9
I219
tp110
a(I10
I220
tp111
a(I12
I239
tp112
a(I13
I242
tp113
a(I14
I243
tp114
a(I15
I263
tp115
a(I17
I273
tp116
a(I18
I275
tp117
a(I19
I290
tp118
a(I20
I291
tp119
a(I21
I293
tp120
a(I22
I294
tp121
a(I23
I295
tp122
a(I24
I298
tp123
a(I25
I299
tp124
a(I26
I300
tp125
a(I27
I301
tp126
a(I28
I302
tp127
a(I29
I316
tp128
a(I30
I323
tp129
a(I31
I326
tp130
a(I32
I342
tp131
a(I33
I343
tp132
a(I34
I345
tp133
a(I35
I347
tp134
a(I36
I348
tp135
a(I37
I349
tp136
a(I38
I355
tp137
a(I39
I357
tp138
a(I40
I371
tp139
a(I41
I373
tp140
a(I42
I374
tp141
a(I43
I377
tp142
a(I44
I401
tp143
a(I47
I432
tp144
a(I48
I434
tp145
a(I49
I435
tp146
a(I50
I436
tp147
a(I51
I438
tp148
a(I52
I461
tp149
a(I53
I485
tp150
a(I54
I486
tp151
a(I55
I488
tp152
a(I56
I492
tp153
a(I57
I495
tp154
a(I58
I516
tp155
a(I60
I525
tp156
a(I61
I536
tp157
a(I62
I543
tp158
a(I63
I549
tp159
a(I64
I573
tp160
a(I65
I656
tp161
a(I66
I659
tp162
aI122
tp163
a((lp164
I72
aI18
aI10
a(lp165
(I0
I153
tp166
a(I1
I155
tp167
a(I2
I156
tp168
a(I3
I157
tp169
a(I4
I181
tp170
a(I5
I183
tp171
a(I6
I211
tp172
a(I7
I219
tp173
a(I8
I240
tp174
a(I9
I243
tp175
a(I10
I245
tp176
a(I11
I247
tp177
a(I12
I248
tp178
a(I13
I261
tp179
a(I14
I266
tp180
a(I15
I268
tp181
a(I16
I269
tp182
a(I17
I270
tp183
a(I18
I271
tp184
a(I19
I275
tp185
a(I20
I290
tp186
a(I21
I291
tp187
a(I22
I297
tp188
a(I23
I298
tp189
a(I24
I299
tp190
a(I25
I300
tp191
a(I26
I301
tp192
a(I27
I302
tp193
a(I28
I303
tp194
a(I29
I316
tp195
a(I31
I329
tp196
a(I32
I330
tp197
a(I33
I331
tp198
a(I35
I347
tp199
a(I36
I349
tp200
a(I37
I350
tp201
a(I38
I352
tp202
a(I39
I353
tp203
a(I40
I354
tp204
a(I41
I358
tp205
a(I42
I359
tp206
a(I43
I374
tp207
a(I44
I377
tp208
a(I45
I404
tp209
a(I46
I409
tp210
a(I47
I427
tp211
a(I48
I434
tp212
a(I49
I456
tp213
a(I50
I459
tp214
a(I51
I460
tp215
a(I52
I463
tp216
a(I53
I466
tp217
a(I54
I467
tp218
a(I55
I470
tp219
a(I56
I485
tp220
a(I57
I487
tp221
a(I58
I491
tp222
a(I59
I512
tp223
a(I60
I513
tp224
a(I61
I515
tp225
a(I62
I516
tp226
a(I63
I544
tp227
a(I64
I567
tp228
a(I65
I571
tp229
a(I67
I599
tp230
a(I68
I602
tp231
a(I69
I603
tp232
a(I70
I628
tp233
a(I71
I654
tp234
a(I72
I658
tp235
a(I73
I711
tp236
a(I74
I717
tp237
aI135
tp238
a((lp239
I74
aI17
aI10
a(lp240
(I0
I124
tp241
a(I1
I125
tp242
a(I2
I154
tp243
a(I3
I155
tp244
a(I4
I156
tp245
a(I5
I157
tp246
a(I6
I161
tp247
a(I7
I180
tp248
a(I9
I188
tp249
a(I10
I191
tp250
a(I11
I204
tp251
a(I12
I210
tp252
a(I13
I233
tp253
a(I14
I238
tp254
a(I15
I240
tp255
a(I16
I242
tp256
a(I17
I243
tp257
a(I18
I248
tp258
a(I19
I273
tp259
a(I20
I296
tp260
a(I21
I297
tp261
a(I22
I298
tp262
a(I23
I299
tp263
a(I24
I316
tp264
a(I25
I317
tp265
a(I26
I318
tp266
a(I27
I320
tp267
a(I28
I329
tp268
a(I29
I342
tp269
a(I30
I343
tp270
a(I31
I347
tp271
a(I32
I355
tp272
a(I33
I370
tp273
a(I34
I376
tp274
a(I35
I377
tp275
a(I36
I378
tp276
a(I37
I379
tp277
a(I38
I382
tp278
a(I39
I398
tp279
a(I40
I403
tp280
a(I41
I404
tp281
a(I42
I407
tp282
a(I43
I414
tp283
a(I44
I430
tp284
a(I45
I432
tp285
a(I46
I437
tp286
a(I47
I442
tp287
a(I48
I455
tp288
a(I49
I457
tp289
a(I50
I462
tp290
a(I51
I464
tp291
a(I52
I465
tp292
a(I53
I467
tp293
a(I54
I468
tp294
a(I55
I484
tp295
a(I56
I485
tp296
a(I57
I514
tp297
a(I58
I515
tp298
a(I59
I516
tp299
a(I60
I517
tp300
a(I61
I518
tp301
a(I62
I525
tp302
a(I63
I541
tp303
a(I64
I545
tp304
a(I65
I567
tp305
a(I66
I568
tp306
a(I67
I569
tp307
a(I68
I570
tp308
a(I69
I571
tp309
a(I70
I572
tp310
a(I71
I627
tp311
a(I72
I628
tp312
a(I73
I716
tp313
a(I74
I717
tp314
aI143
tp315
a((lp316
I71
aI17
aI10
a(lp317
(I0
I100
tp318
a(I1
I102
tp319
a(I2
I103
tp320
a(I3
I124
tp321
a(I4
I153
tp322
a(I5
I154
tp323
a(I6
I155
tp324
a(I7
I156
tp325
a(I8
I157
tp326
a(I9
I159
tp327
a(I10
I180
tp328
a(I11
I210
tp329
a(I12
I212
tp330
a(I13
I220
tp331
a(I14
I234
tp332
a(I15
I239
tp333
a(I16
I240
tp334
a(I17
I241
tp335
a(I18
I242
tp336
a(I19
I248
tp337
a(I20
I266
tp338
a(I21
I269
tp339
a(I22
I270
tp340
a(I23
I276
tp341
a(I24
I290
tp342
a(I25
I292
tp343
a(I26
I294
tp344
a(I27
I295
tp345
a(I28
I316
tp346
a(I29
I320
tp347
a(I30
I321
tp348
a(I31
I322
tp349
a(I32
I329
tp350
a(I33
I330
tp351
a(I34
I342
tp352
a(I35
I347
tp353
a(I36
I349
tp354
a(I37
I351
tp355
a(I39
I374
tp356
a(I40
I375
tp357
a(I41
I377
tp358
a(I42
I379
tp359
a(I43
I381
tp360
a(I44
I399
tp361
a(I45
I405
tp362
a(I46
I406
tp363
a(I47
I407
tp364
a(I48
I409
tp365
a(I49
I428
tp366
a(I50
I434
tp367
a(I51
I438
tp368
a(I52
I462
tp369
a(I53
I467
tp370
a(I54
I481
tp371
a(I55
I485
tp372
a(I56
I486
tp373
a(I57
I489
tp374
a(I58
I490
tp375
a(I59
I515
tp376
a(I60
I516
tp377
a(I61
I540
tp378
a(I62
I541
tp379
a(I63
I542
tp380
a(I64
I544
tp381
a(I65
I548
tp382
a(I66
I568
tp383
a(I67
I570
tp384
a(I68
I595
tp385
a(I69
I596
tp386
a(I70
I654
tp387
a(I71
I656
tp388
aI146
tp389
a((lp390
I67
aI15
aI10
a(lp391
(I0
I126
tp392
a(I1
I153
tp393
a(I2
I156
tp394
a(I3
I180
tp395
a(I4
I211
tp396
a(I5
I212
tp397
a(I6
I238
tp398
a(I7
I240
tp399
a(I8
I242
tp400
a(I9
I246
tp401
a(I10
I270
tp402
a(I11
I276
tp403
a(I12
I290
tp404
a(I13
I291
tp405
a(I14
I292
tp406
a(I15
I294
tp407
a(I16
I295
tp408
a(I17
I296
tp409
a(I18
I302
tp410
a(I19
I318
tp411
a(I20
I323
tp412
a(I21
I326
tp413
a(I22
I328
tp414
a(I23
I341
tp415
a(I24
I342
tp416
a(I25
I343
tp417
a(I26
I344
tp418
a(I27
I348
tp419
a(I28
I350
tp420
a(I29
I356
tp421
a(I30
I374
tp422
a(I31
I377
tp423
a(I32
I379
tp424
a(I33
I399
tp425
a(I34
I404
tp426
a(I35
I405
tp427
a(I36
I434
tp428
a(I37
I456
tp429
a(I38
I460
tp430
a(I39
I461
tp431
a(I40
I462
tp432
a(I41
I486
tp433
a(I42
I487
tp434
a(I43
I489
tp435
a(I44
I490
tp436
a(I45
I520
tp437
a(I46
I527
tp438
a(I47
I541
tp439
a(I48
I555
tp440
a(I49
I566
tp441
a(I50
I567
tp442
a(I51
I568
tp443
a(I52
I569
tp444
a(I53
I570
tp445
a(I54
I571
tp446
a(I55
I572
tp447
a(I56
I575
tp448
a(I57
I578
tp449
a(I58
I594
tp450
a(I59
I595
tp451
a(I60
I596
tp452
a(I61
I623
tp453
a(I62
I633
tp454
a(I63
I656
tp455
a(I65
I681
tp456
a(I66
I686
tp457
a(I67
I717
tp458
aI126
tp459
asF0.84999999999999998
(lp460
((lp461
I105
aI18
aI10
a(lp462
(I0
I100
tp463
a(I1
I103
tp464
a(I2
I125
tp465
a(I3
I127
tp466
a(I4
I150
tp467
a(I5
I151
tp468
a(I6
I154
tp469
a(I7
I157
tp470
a(I8
I176
tp471
a(I9
I180
tp472
a(I10
I181
tp473
a(I11
I184
tp474
a(I12
I190
tp475
a(I13
I191
tp476
a(I14
I209
tp477
a(I15
I210
tp478
a(I16
I212
tp479
a(I17
I219
tp480
a(I18
I231
tp481
a(I19
I237
tp482
a(I20
I239
tp483
a(I21
I242
tp484
a(I22
I244
tp485
a(I23
I247
tp486
a(I24
I248
tp487
a(I25
I260
tp488
a(I26
I266
tp489
a(I27
I269
tp490
a(I28
I271
tp491
a(I29
I275
tp492
a(I30
I276
tp493
a(I31
I288
tp494
a(I32
I290
tp495
a(I33
I291
tp496
a(I34
I292
tp497
a(I35
I293
tp498
a(I36
I294
tp499
a(I37
I295
tp500
a(I38
I296
tp501
a(I39
I299
tp502
a(I40
I316
tp503
a(I41
I318
tp504
a(I42
I319
tp505
a(I43
I320
tp506
a(I44
I322
tp507
a(I46
I330
tp508
a(I47
I342
tp509
a(I48
I343
tp510
a(I49
I344
tp511
a(I50
I345
tp512
a(I51
I346
tp513
a(I52
I348
tp514
a(I53
I350
tp515
a(I54
I356
tp516
a(I55
I370
tp517
a(I56
I371
tp518
a(I58
I373
tp519
a(I59
I376
tp520
a(I60
I377
tp521
a(I62
I380
tp522
a(I63
I404
tp523
a(I64
I406
tp524
a(I65
I415
tp525
a(I66
I431
tp526
a(I67
I433
tp527
a(I68
I437
tp528
a(I69
I455
tp529
a(I70
I458
tp530
a(I71
I459
tp531
a(I72
I461
tp532
a(I73
I462
tp533
a(I74
I466
tp534
a(I75
I467
tp535
a(I76
I481
tp536
a(I77
I484
tp537
a(I78
I485
tp538
a(I79
I486
tp539
a(I80
I492
tp540
a(I81
I496
tp541
a(I82
I497
tp542
a(I83
I500
tp543
a(I84
I510
tp544
a(I85
I514
tp545
a(I86
I515
tp546
a(I88
I517
tp547
a(I89
I521
tp548
a(I90
I522
tp549
a(I91
I525
tp550
a(I92
I527
tp551
a(I93
I568
tp552
a(I94
I569
tp553
a(I95
I571
tp554
a(I96
I581
tp555
a(I97
I594
tp556
a(I98
I595
tp557
a(I99
I596
tp558
a(I100
I600
tp559
a(I101
I606
tp560
a(I102
I626
tp561
a(I103
I628
tp562
a(I104
I629
tp563
a(I105
I634
tp564
a(I106
I658
tp565
a(I107
I664
tp566
a(I108
I680
tp567
aI173
tp568
a((lp569
I120
aI18
aI10
a(lp570
(I0
I97
tp571
a(I1
I98
tp572
a(I2
I153
tp573
a(I3
I155
tp574
a(I4
I157
tp575
a(I5
I159
tp576
a(I6
I177
tp577
a(I7
I180
tp578
a(I8
I182
tp579
a(I9
I184
tp580
a(I10
I185
tp581
a(I11
I206
tp582
a(I12
I210
tp583
a(I13
I212
tp584
a(I14
I213
tp585
a(I15
I214
tp586
a(I16
I217
tp587
a(I17
I219
tp588
a(I18
I232
tp589
a(I19
I234
tp590
a(I20
I238
tp591
a(I21
I241
tp592
a(I22
I244
tp593
a(I23
I248
tp594
a(I24
I261
tp595
a(I25
I266
tp596
a(I26
I267
tp597
a(I27
I268
tp598
a(I28
I269
tp599
a(I29
I270
tp600
a(I30
I271
tp601
a(I31
I272
tp602
a(I32
I274
tp603
a(I33
I291
tp604
a(I34
I293
tp605
a(I35
I294
tp606
a(I36
I298
tp607
a(I37
I299
tp608
a(I38
I300
tp609
a(I39
I302
tp610
a(I40
I316
tp611
a(I41
I317
tp612
a(I42
I319
tp613
a(I43
I320
tp614
a(I44
I321
tp615
a(I45
I322
tp616
a(I46
I323
tp617
a(I47
I324
tp618
a(I48
I342
tp619
a(I49
I343
tp620
a(I50
I345
tp621
a(I51
I346
tp622
a(I52
I351
tp623
a(I53
I352
tp624
a(I54
I370
tp625
a(I55
I371
tp626
a(I56
I373
tp627
a(I57
I376
tp628
a(I58
I377
tp629
a(I59
I379
tp630
a(I60
I381
tp631
a(I61
I382
tp632
a(I62
I388
tp633
a(I63
I398
tp634
a(I64
I400
tp635
a(I65
I401
tp636
a(I66
I403
tp637
a(I67
I406
tp638
a(I68
I408
tp639
a(I69
I409
tp640
a(I70
I411
tp641
a(I71
I428
tp642
a(I72
I430
tp643
a(I73
I431
tp644
a(I74
I434
tp645
a(I75
I436
tp646
a(I76
I438
tp647
a(I77
I442
tp648
a(I78
I455
tp649
a(I79
I456
tp650
a(I80
I461
tp651
a(I81
I462
tp652
a(I82
I463
tp653
a(I83
I464
tp654
a(I84
I468
tp655
a(I85
I484
tp656
a(I86
I485
tp657
a(I87
I486
tp658
a(I88
I488
tp659
a(I89
I489
tp660
a(I90
I491
tp661
a(I91
I495
tp662
a(I92
I510
tp663
a(I93
I513
tp664
a(I94
I516
tp665
a(I95
I517
tp666
a(I96
I538
tp667
a(I97
I539
tp668
a(I98
I540
tp669
a(I99
I541
tp670
a(I100
I548
tp671
a(I101
I549
tp672
a(I102
I567
tp673
a(I103
I568
tp674
a(I104
I569
tp675
a(I105
I572
tp676
a(I106
I580
tp677
a(I107
I597
tp678
a(I108
I607
tp679
a(I109
I624
tp680
a(I110
I633
tp681
a(I111
I634
tp682
a(I112
I656
tp683
a(I113
I657
tp684
a(I114
I659
tp685
a(I115
I664
tp686
a(I116
I685
tp687
a(I117
I688
tp688
a(I118
I692
tp689
a(I119
I718
tp690
aI213
tp691
a((lp692
I91
aI17
aI10
a(lp693
(I0
I103
tp694
a(I1
I124
tp695
a(I2
I130
tp696
a(I3
I148
tp697
a(I4
I152
tp698
a(I5
I153
tp699
a(I6
I155
tp700
a(I7
I156
tp701
a(I8
I177
tp702
a(I9
I180
tp703
a(I10
I184
tp704
a(I11
I185
tp705
a(I12
I210
tp706
a(I13
I211
tp707
a(I14
I219
tp708
a(I15
I220
tp709
a(I16
I243
tp710
a(I17
I248
tp711
a(I18
I262
tp712
a(I19
I266
tp713
a(I20
I269
tp714
a(I21
I271
tp715
a(I22
I287
tp716
a(I23
I290
tp717
a(I24
I291
tp718
a(I25
I292
tp719
a(I26
I293
tp720
a(I27
I296
tp721
a(I28
I297
tp722
a(I29
I301
tp723
a(I30
I302
tp724
a(I31
I303
tp725
a(I32
I316
tp726
a(I33
I317
tp727
a(I34
I318
tp728
a(I35
I319
tp729
a(I36
I320
tp730
a(I37
I321
tp731
a(I38
I327
tp732
a(I39
I341
tp733
a(I40
I342
tp734
a(I41
I344
tp735
a(I42
I350
tp736
a(I43
I351
tp737
a(I44
I354
tp738
a(I45
I355
tp739
a(I46
I359
tp740
a(I47
I377
tp741
a(I48
I379
tp742
a(I49
I403
tp743
a(I50
I404
tp744
a(I51
I405
tp745
a(I52
I413
tp746
a(I53
I427
tp747
a(I54
I432
tp748
a(I55
I433
tp749
a(I56
I434
tp750
a(I57
I453
tp751
a(I58
I458
tp752
a(I59
I459
tp753
a(I60
I460
tp754
a(I61
I462
tp755
a(I63
I483
tp756
a(I64
I485
tp757
a(I65
I486
tp758
a(I66
I487
tp759
a(I67
I489
tp760
a(I68
I490
tp761
a(I69
I515
tp762
a(I70
I516
tp763
a(I71
I540
tp764
a(I72
I565
tp765
a(I73
I566
tp766
a(I74
I567
tp767
a(I75
I568
tp768
a(I76
I569
tp769
a(I77
I571
tp770
a(I78
I573
tp771
a(I79
I575
tp772
a(I80
I577
tp773
a(I81
I581
tp774
a(I82
I604
tp775
a(I83
I605
tp776
a(I84
I607
tp777
a(I85
I632
tp778
a(I86
I653
tp779
a(I87
I656
tp780
a(I88
I659
tp781
a(I89
I687
tp782
a(I90
I710
tp783
a(I91
I713
tp784
aI174
tp785
a((lp786
I88
aI15
aI10
a(lp787
(I0
I103
tp788
a(I1
I125
tp789
a(I2
I153
tp790
a(I3
I155
tp791
a(I4
I157
tp792
a(I5
I181
tp793
a(I6
I182
tp794
a(I7
I184
tp795
a(I8
I186
tp796
a(I9
I188
tp797
a(I10
I189
tp798
a(I11
I216
tp799
a(I12
I219
tp800
a(I13
I236
tp801
a(I14
I238
tp802
a(I15
I244
tp803
a(I16
I246
tp804
a(I17
I265
tp805
a(I18
I266
tp806
a(I19
I269
tp807
a(I20
I270
tp808
a(I21
I271
tp809
a(I22
I272
tp810
a(I23
I290
tp811
a(I24
I294
tp812
a(I25
I295
tp813
a(I26
I300
tp814
a(I27
I301
tp815
a(I28
I302
tp816
a(I29
I318
tp817
a(I30
I321
tp818
a(I31
I322
tp819
a(I32
I326
tp820
a(I33
I329
tp821
a(I34
I342
tp822
a(I35
I343
tp823
a(I36
I344
tp824
a(I37
I345
tp825
a(I38
I346
tp826
a(I39
I347
tp827
a(I40
I348
tp828
a(I41
I349
tp829
a(I42
I350
tp830
a(I43
I352
tp831
a(I44
I356
tp832
a(I45
I370
tp833
a(I46
I375
tp834
a(I47
I378
tp835
a(I48
I379
tp836
a(I49
I399
tp837
a(I50
I402
tp838
a(I51
I403
tp839
a(I52
I405
tp840
a(I53
I406
tp841
a(I54
I411
tp842
a(I55
I427
tp843
a(I56
I430
tp844
a(I57
I433
tp845
a(I58
I438
tp846
a(I59
I455
tp847
a(I60
I464
tp848
a(I61
I467
tp849
a(I62
I485
tp850
a(I63
I486
tp851
a(I64
I487
tp852
a(I65
I488
tp853
a(I66
I489
tp854
a(I67
I498
tp855
a(I68
I515
tp856
a(I69
I518
tp857
a(I70
I520
tp858
a(I71
I523
tp859
a(I72
I540
tp860
a(I73
I541
tp861
a(I74
I542
tp862
a(I75
I568
tp863
a(I76
I575
tp864
a(I77
I578
tp865
a(I78
I596
tp866
a(I79
I597
tp867
a(I80
I601
tp868
a(I81
I604
tp869
a(I82
I606
tp870
a(I83
I626
tp871
a(I84
I628
tp872
a(I85
I629
tp873
a(I86
I686
tp874
a(I87
I687
tp875
aI163
tp876
a((lp877
I88
aI18
aI10
a(lp878
(I0
I150
tp879
a(I1
I152
tp880
a(I2
I154
tp881
a(I3
I156
tp882
a(I4
I157
tp883
a(I5
I158
tp884
a(I6
I182
tp885
a(I7
I183
tp886
a(I8
I186
tp887
a(I9
I206
tp888
a(I10
I209
tp889
a(I11
I212
tp890
a(I12
I213
tp891
a(I13
I214
tp892
a(I14
I219
tp893
a(I15
I220
tp894
a(I16
I238
tp895
a(I17
I243
tp896
a(I18
I247
tp897
a(I19
I248
tp898
a(I20
I259
tp899
a(I21
I261
tp900
a(I22
I263
tp901
a(I23
I266
tp902
a(I24
I267
tp903
a(I25
I268
tp904
a(I26
I274
tp905
a(I27
I290
tp906
a(I28
I293
tp907
a(I29
I294
tp908
a(I30
I297
tp909
a(I31
I299
tp910
a(I32
I300
tp911
a(I33
I317
tp912
a(I34
I322
tp913
a(I35
I324
tp914
a(I36
I328
tp915
a(I37
I342
tp916
a(I38
I344
tp917
a(I39
I346
tp918
a(I40
I348
tp919
a(I41
I349
tp920
a(I42
I350
tp921
a(I43
I369
tp922
a(I44
I376
tp923
a(I45
I377
tp924
a(I46
I379
tp925
a(I47
I401
tp926
a(I48
I403
tp927
a(I49
I406
tp928
a(I50
I407
tp929
a(I51
I427
tp930
a(I52
I430
tp931
a(I53
I433
tp932
a(I54
I435
tp933
a(I55
I454
tp934
a(I56
I455
tp935
a(I57
I456
tp936
a(I58
I457
tp937
a(I59
I461
tp938
a(I60
I462
tp939
a(I61
I464
tp940
a(I62
I465
tp941
a(I63
I468
tp942
a(I64
I486
tp943
a(I65
I489
tp944
a(I66
I516
tp945
a(I67
I528
tp946
a(I68
I536
tp947
a(I69
I541
tp948
a(I70
I542
tp949
a(I71
I544
tp950
a(I72
I547
tp951
a(I73
I554
tp952
a(I74
I566
tp953
a(I75
I568
tp954
a(I76
I571
tp955
a(I77
I602
tp956
a(I78
I606
tp957
a(I79
I624
tp958
a(I80
I625
tp959
a(I81
I629
tp960
a(I82
I653
tp961
a(I83
I654
tp962
a(I84
I656
tp963
a(I85
I659
tp964
a(I86
I688
tp965
a(I87
I745
tp966
aI161
tp967
asF0.93000000000000005
(lp968
((lp969
I230
aI16
aI10
a(lp970
(I0
I99
tp971
a(I1
I100
tp972
a(I2
I102
tp973
a(I3
I103
tp974
a(I4
I122
tp975
a(I5
I124
tp976
a(I6
I128
tp977
a(I7
I131
tp978
a(I8
I147
tp979
a(I9
I150
tp980
a(I10
I151
tp981
a(I11
I153
tp982
a(I12
I155
tp983
a(I13
I156
tp984
a(I14
I158
tp985
a(I15
I160
tp986
a(I16
I161
tp987
a(I17
I162
tp988
a(I18
I177
tp989
a(I19
I178
tp990
a(I20
I180
tp991
a(I21
I181
tp992
a(I22
I185
tp993
a(I23
I186
tp994
a(I24
I187
tp995
a(I25
I189
tp996
a(I26
I191
tp997
a(I27
I206
tp998
a(I28
I207
tp999
a(I29
I208
tp1000
a(I30
I209
tp1001
a(I31
I210
tp1002
a(I32
I211
tp1003
a(I33
I212
tp1004
a(I34
I213
tp1005
a(I35
I215
tp1006
a(I36
I216
tp1007
a(I37
I219
tp1008
a(I38
I220
tp1009
a(I39
I233
tp1010
a(I40
I235
tp1011
a(I41
I237
tp1012
a(I42
I238
tp1013
a(I43
I242
tp1014
a(I44
I243
tp1015
a(I45
I244
tp1016
a(I46
I247
tp1017
a(I47
I248
tp1018
a(I48
I259
tp1019
a(I49
I261
tp1020
a(I50
I263
tp1021
a(I51
I264
tp1022
a(I52
I266
tp1023
a(I53
I268
tp1024
a(I54
I269
tp1025
a(I55
I271
tp1026
a(I56
I272
tp1027
a(I57
I273
tp1028
a(I58
I274
tp1029
a(I59
I275
tp1030
a(I60
I276
tp1031
a(I61
I277
tp1032
a(I62
I288
tp1033
a(I63
I289
tp1034
a(I64
I290
tp1035
a(I65
I292
tp1036
a(I66
I293
tp1037
a(I67
I294
tp1038
a(I68
I296
tp1039
a(I69
I297
tp1040
a(I70
I298
tp1041
a(I71
I300
tp1042
a(I72
I302
tp1043
a(I73
I303
tp1044
a(I74
I304
tp1045
a(I75
I314
tp1046
a(I76
I316
tp1047
a(I77
I318
tp1048
a(I78
I319
tp1049
a(I79
I321
tp1050
a(I80
I322
tp1051
a(I81
I323
tp1052
a(I82
I325
tp1053
a(I83
I326
tp1054
a(I84
I327
tp1055
a(I85
I328
tp1056
a(I86
I329
tp1057
a(I87
I332
tp1058
a(I88
I341
tp1059
a(I89
I342
tp1060
a(I90
I344
tp1061
a(I91
I345
tp1062
a(I92
I346
tp1063
a(I93
I347
tp1064
a(I94
I348
tp1065
a(I95
I349
tp1066
a(I96
I350
tp1067
a(I97
I353
tp1068
a(I98
I354
tp1069
a(I99
I355
tp1070
a(I100
I356
tp1071
a(I101
I357
tp1072
a(I102
I359
tp1073
a(I103
I369
tp1074
a(I104
I371
tp1075
a(I105
I372
tp1076
a(I106
I373
tp1077
a(I107
I374
tp1078
a(I108
I375
tp1079
a(I109
I376
tp1080
a(I110
I377
tp1081
a(I111
I378
tp1082
a(I112
I379
tp1083
a(I113
I381
tp1084
a(I114
I383
tp1085
a(I115
I384
tp1086
a(I116
I386
tp1087
a(I117
I387
tp1088
a(I118
I397
tp1089
a(I119
I398
tp1090
a(I120
I401
tp1091
a(I121
I402
tp1092
a(I122
I403
tp1093
a(I123
I405
tp1094
a(I124
I406
tp1095
a(I125
I408
tp1096
a(I126
I409
tp1097
a(I127
I410
tp1098
a(I128
I411
tp1099
a(I129
I412
tp1100
a(I130
I413
tp1101
a(I131
I426
tp1102
a(I132
I427
tp1103
a(I133
I428
tp1104
a(I134
I429
tp1105
a(I135
I432
tp1106
a(I136
I433
tp1107
a(I137
I434
tp1108
a(I138
I435
tp1109
a(I139
I437
tp1110
a(I140
I440
tp1111
a(I141
I441
tp1112
a(I142
I442
tp1113
a(I143
I454
tp1114
a(I144
I455
tp1115
a(I145
I456
tp1116
a(I146
I457
tp1117
a(I147
I458
tp1118
a(I148
I459
tp1119
a(I149
I460
tp1120
a(I150
I462
tp1121
a(I151
I465
tp1122
a(I152
I466
tp1123
a(I153
I467
tp1124
a(I154
I468
tp1125
a(I155
I483
tp1126
a(I156
I485
tp1127
a(I157
I486
tp1128
a(I158
I487
tp1129
a(I159
I488
tp1130
a(I160
I489
tp1131
a(I161
I490
tp1132
a(I162
I491
tp1133
a(I163
I492
tp1134
a(I164
I495
tp1135
a(I165
I498
tp1136
a(I166
I508
tp1137
a(I167
I510
tp1138
a(I168
I512
tp1139
a(I169
I513
tp1140
a(I170
I514
tp1141
a(I171
I515
tp1142
a(I172
I516
tp1143
a(I173
I517
tp1144
a(I174
I518
tp1145
a(I175
I521
tp1146
a(I176
I525
tp1147
a(I177
I526
tp1148
a(I178
I527
tp1149
a(I179
I536
tp1150
a(I180
I539
tp1151
a(I181
I540
tp1152
a(I182
I541
tp1153
a(I183
I543
tp1154
a(I184
I549
tp1155
a(I185
I553
tp1156
a(I186
I554
tp1157
a(I187
I555
tp1158
a(I188
I566
tp1159
a(I189
I567
tp1160
a(I190
I570
tp1161
a(I191
I571
tp1162
a(I192
I572
tp1163
a(I193
I574
tp1164
a(I194
I575
tp1165
a(I195
I578
tp1166
a(I196
I579
tp1167
a(I197
I580
tp1168
a(I198
I581
tp1169
a(I199
I593
tp1170
a(I200
I595
tp1171
a(I201
I596
tp1172
a(I202
I597
tp1173
a(I203
I601
tp1174
a(I204
I603
tp1175
a(I205
I605
tp1176
a(I206
I607
tp1177
a(I207
I620
tp1178
a(I208
I624
tp1179
a(I209
I625
tp1180
a(I210
I628
tp1181
a(I211
I630
tp1182
a(I212
I634
tp1183
a(I213
I650
tp1184
a(I214
I652
tp1185
a(I215
I653
tp1186
a(I216
I654
tp1187
a(I217
I656
tp1188
a(I218
I657
tp1189
a(I219
I660
tp1190
a(I220
I665
tp1191
a(I221
I679
tp1192
a(I222
I685
tp1193
a(I223
I688
tp1194
a(I224
I691
tp1195
a(I225
I713
tp1196
a(I226
I716
tp1197
a(I227
I719
tp1198
a(I228
I745
tp1199
a(I229
I746
tp1200
aI438
tp1201
a((lp1202
I237
aI19
aI10
a(lp1203
(I0
I98
tp1204
a(I1
I99
tp1205
a(I2
I100
tp1206
a(I3
I101
tp1207
a(I4
I102
tp1208
a(I5
I123
tp1209
a(I6
I124
tp1210
a(I7
I125
tp1211
a(I8
I127
tp1212
a(I9
I128
tp1213
a(I10
I129
tp1214
a(I11
I130
tp1215
a(I12
I151
tp1216
a(I13
I154
tp1217
a(I14
I155
tp1218
a(I15
I157
tp1219
a(I16
I158
tp1220
a(I17
I159
tp1221
a(I18
I160
tp1222
a(I19
I175
tp1223
a(I20
I180
tp1224
a(I21
I181
tp1225
a(I22
I184
tp1226
a(I23
I185
tp1227
a(I24
I186
tp1228
a(I25
I187
tp1229
a(I26
I190
tp1230
a(I27
I191
tp1231
a(I28
I192
tp1232
a(I29
I201
tp1233
a(I30
I202
tp1234
a(I31
I207
tp1235
a(I32
I208
tp1236
a(I33
I209
tp1237
a(I34
I210
tp1238
a(I35
I211
tp1239
a(I36
I212
tp1240
a(I37
I213
tp1241
a(I38
I214
tp1242
a(I39
I215
tp1243
a(I40
I217
tp1244
a(I41
I219
tp1245
a(I42
I220
tp1246
a(I43
I228
tp1247
a(I44
I232
tp1248
a(I45
I235
tp1249
a(I46
I237
tp1250
a(I47
I238
tp1251
a(I48
I239
tp1252
a(I49
I240
tp1253
a(I50
I243
tp1254
a(I51
I245
tp1255
a(I52
I246
tp1256
a(I53
I247
tp1257
a(I54
I248
tp1258
a(I55
I249
tp1259
a(I56
I263
tp1260
a(I57
I265
tp1261
a(I58
I266
tp1262
a(I59
I267
tp1263
a(I60
I268
tp1264
a(I61
I269
tp1265
a(I62
I270
tp1266
a(I63
I271
tp1267
a(I64
I272
tp1268
a(I65
I273
tp1269
a(I66
I274
tp1270
a(I67
I275
tp1271
a(I68
I276
tp1272
a(I69
I277
tp1273
a(I70
I288
tp1274
a(I71
I289
tp1275
a(I72
I290
tp1276
a(I73
I291
tp1277
a(I74
I293
tp1278
a(I75
I294
tp1279
a(I76
I296
tp1280
a(I77
I297
tp1281
a(I78
I298
tp1282
a(I79
I299
tp1283
a(I80
I300
tp1284
a(I81
I301
tp1285
a(I82
I302
tp1286
a(I83
I305
tp1287
a(I84
I314
tp1288
a(I85
I315
tp1289
a(I86
I318
tp1290
a(I87
I319
tp1291
a(I88
I320
tp1292
a(I89
I321
tp1293
a(I90
I322
tp1294
a(I91
I323
tp1295
a(I92
I324
tp1296
a(I93
I325
tp1297
a(I94
I326
tp1298
a(I95
I327
tp1299
a(I96
I328
tp1300
a(I97
I329
tp1301
a(I98
I330
tp1302
a(I99
I333
tp1303
a(I100
I341
tp1304
a(I101
I342
tp1305
a(I102
I343
tp1306
a(I103
I344
tp1307
a(I104
I345
tp1308
a(I105
I346
tp1309
a(I106
I347
tp1310
a(I107
I348
tp1311
a(I108
I349
tp1312
a(I109
I350
tp1313
a(I110
I352
tp1314
a(I111
I353
tp1315
a(I112
I354
tp1316
a(I113
I355
tp1317
a(I114
I357
tp1318
a(I115
I358
tp1319
a(I116
I359
tp1320
a(I117
I369
tp1321
a(I118
I370
tp1322
a(I119
I371
tp1323
a(I120
I372
tp1324
a(I121
I373
tp1325
a(I122
I374
tp1326
a(I123
I375
tp1327
a(I124
I377
tp1328
a(I125
I380
tp1329
a(I126
I381
tp1330
a(I127
I383
tp1331
a(I128
I384
tp1332
a(I129
I386
tp1333
a(I130
I387
tp1334
a(I131
I397
tp1335
a(I132
I401
tp1336
a(I133
I403
tp1337
a(I134
I404
tp1338
a(I135
I406
tp1339
a(I136
I407
tp1340
a(I137
I408
tp1341
a(I138
I409
tp1342
a(I139
I410
tp1343
a(I140
I412
tp1344
a(I141
I415
tp1345
a(I142
I427
tp1346
a(I143
I429
tp1347
a(I144
I430
tp1348
a(I145
I431
tp1349
a(I146
I432
tp1350
a(I147
I433
tp1351
a(I148
I434
tp1352
a(I149
I436
tp1353
a(I150
I443
tp1354
a(I151
I454
tp1355
a(I152
I455
tp1356
a(I153
I456
tp1357
a(I154
I457
tp1358
a(I155
I458
tp1359
a(I156
I462
tp1360
a(I157
I463
tp1361
a(I158
I464
tp1362
a(I159
I465
tp1363
a(I160
I466
tp1364
a(I161
I468
tp1365
a(I162
I470
tp1366
a(I163
I482
tp1367
a(I164
I484
tp1368
a(I165
I485
tp1369
a(I166
I486
tp1370
a(I167
I487
tp1371
a(I168
I488
tp1372
a(I169
I489
tp1373
a(I170
I490
tp1374
a(I171
I491
tp1375
a(I172
I493
tp1376
a(I173
I495
tp1377
a(I174
I497
tp1378
a(I175
I498
tp1379
a(I176
I508
tp1380
a(I177
I510
tp1381
a(I178
I511
tp1382
a(I179
I513
tp1383
a(I180
I514
tp1384
a(I181
I515
tp1385
a(I182
I516
tp1386
a(I183
I518
tp1387
a(I184
I519
tp1388
a(I185
I526
tp1389
a(I186
I528
tp1390
a(I187
I536
tp1391
a(I188
I538
tp1392
a(I189
I540
tp1393
a(I190
I541
tp1394
a(I191
I543
tp1395
a(I192
I545
tp1396
a(I193
I547
tp1397
a(I194
I551
tp1398
a(I195
I555
tp1399
a(I196
I556
tp1400
a(I197
I565
tp1401
a(I198
I568
tp1402
a(I199
I569
tp1403
a(I200
I571
tp1404
a(I201
I572
tp1405
a(I202
I573
tp1406
a(I203
I574
tp1407
a(I204
I575
tp1408
a(I205
I576
tp1409
a(I206
I579
tp1410
a(I207
I580
tp1411
a(I208
I592
tp1412
a(I209
I594
tp1413
a(I210
I595
tp1414
a(I211
I599
tp1415
a(I212
I600
tp1416
a(I213
I602
tp1417
a(I214
I605
tp1418
a(I215
I622
tp1419
a(I216
I623
tp1420
a(I217
I624
tp1421
a(I218
I627
tp1422
a(I219
I629
tp1423
a(I220
I630
tp1424
a(I221
I632
tp1425
a(I222
I634
tp1426
a(I223
I635
tp1427
a(I224
I654
tp1428
a(I225
I657
tp1429
a(I226
I658
tp1430
a(I227
I659
tp1431
a(I228
I663
tp1432
a(I229
I679
tp1433
a(I230
I681
tp1434
a(I231
I684
tp1435
a(I232
I686
tp1436
a(I233
I689
tp1437
a(I234
I712
tp1438
a(I235
I713
tp1439
a(I236
I718
tp1440
aI467
tp1441
a((lp1442
I241
aI15
aI10
a(lp1443
(I0
I95
tp1444
a(I1
I96
tp1445
a(I2
I97
tp1446
a(I3
I100
tp1447
a(I4
I102
tp1448
a(I5
I103
tp1449
a(I6
I123
tp1450
a(I7
I124
tp1451
a(I8
I126
tp1452
a(I9
I127
tp1453
a(I10
I130
tp1454
a(I11
I147
tp1455
a(I12
I150
tp1456
a(I13
I151
tp1457
a(I14
I152
tp1458
a(I15
I154
tp1459
a(I16
I155
tp1460
a(I17
I157
tp1461
a(I18
I158
tp1462
a(I19
I159
tp1463
a(I20
I161
tp1464
a(I21
I173
tp1465
a(I22
I174
tp1466
a(I23
I175
tp1467
a(I24
I176
tp1468
a(I25
I177
tp1469
a(I26
I178
tp1470
a(I27
I179
tp1471
a(I28
I181
tp1472
a(I29
I183
tp1473
a(I30
I184
tp1474
a(I31
I187
tp1475
a(I32
I188
tp1476
a(I33
I190
tp1477
a(I34
I191
tp1478
a(I35
I192
tp1479
a(I36
I200
tp1480
a(I37
I205
tp1481
a(I38
I206
tp1482
a(I39
I208
tp1483
a(I40
I209
tp1484
a(I41
I210
tp1485
a(I42
I212
tp1486
a(I43
I213
tp1487
a(I44
I215
tp1488
a(I45
I217
tp1489
a(I46
I218
tp1490
a(I47
I219
tp1491
a(I48
I220
tp1492
a(I49
I228
tp1493
a(I50
I231
tp1494
a(I51
I233
tp1495
a(I52
I234
tp1496
a(I53
I236
tp1497
a(I54
I238
tp1498
a(I55
I240
tp1499
a(I56
I242
tp1500
a(I57
I243
tp1501
a(I58
I245
tp1502
a(I59
I246
tp1503
a(I60
I247
tp1504
a(I61
I248
tp1505
a(I62
I261
tp1506
a(I63
I266
tp1507
a(I64
I267
tp1508
a(I65
I269
tp1509
a(I66
I270
tp1510
a(I67
I271
tp1511
a(I68
I272
tp1512
a(I69
I273
tp1513
a(I70
I274
tp1514
a(I71
I275
tp1515
a(I72
I276
tp1516
a(I73
I288
tp1517
a(I74
I290
tp1518
a(I75
I291
tp1519
a(I76
I292
tp1520
a(I77
I293
tp1521
a(I78
I294
tp1522
a(I79
I295
tp1523
a(I80
I296
tp1524
a(I81
I297
tp1525
a(I82
I298
tp1526
a(I83
I299
tp1527
a(I84
I300
tp1528
a(I85
I301
tp1529
a(I86
I302
tp1530
a(I87
I303
tp1531
a(I88
I304
tp1532
a(I89
I313
tp1533
a(I90
I314
tp1534
a(I91
I316
tp1535
a(I92
I317
tp1536
a(I93
I318
tp1537
a(I94
I319
tp1538
a(I95
I322
tp1539
a(I96
I323
tp1540
a(I97
I327
tp1541
a(I98
I328
tp1542
a(I99
I330
tp1543
a(I100
I341
tp1544
a(I101
I342
tp1545
a(I102
I343
tp1546
a(I103
I346
tp1547
a(I104
I348
tp1548
a(I105
I350
tp1549
a(I106
I351
tp1550
a(I107
I352
tp1551
a(I108
I353
tp1552
a(I109
I354
tp1553
a(I110
I355
tp1554
a(I111
I356
tp1555
a(I112
I359
tp1556
a(I113
I369
tp1557
a(I114
I375
tp1558
a(I115
I376
tp1559
a(I116
I377
tp1560
a(I117
I378
tp1561
a(I118
I379
tp1562
a(I119
I382
tp1563
a(I120
I387
tp1564
a(I121
I399
tp1565
a(I122
I400
tp1566
a(I123
I401
tp1567
a(I124
I403
tp1568
a(I125
I404
tp1569
a(I126
I405
tp1570
a(I127
I406
tp1571
a(I128
I407
tp1572
a(I129
I409
tp1573
a(I130
I410
tp1574
a(I131
I412
tp1575
a(I132
I425
tp1576
a(I133
I427
tp1577
a(I134
I430
tp1578
a(I135
I431
tp1579
a(I136
I432
tp1580
a(I137
I433
tp1581
a(I138
I434
tp1582
a(I139
I435
tp1583
a(I140
I437
tp1584
a(I141
I438
tp1585
a(I142
I439
tp1586
a(I143
I440
tp1587
a(I144
I456
tp1588
a(I145
I458
tp1589
a(I146
I459
tp1590
a(I147
I460
tp1591
a(I148
I461
tp1592
a(I149
I462
tp1593
a(I150
I463
tp1594
a(I151
I464
tp1595
a(I153
I468
tp1596
a(I154
I470
tp1597
a(I155
I472
tp1598
a(I156
I480
tp1599
a(I157
I481
tp1600
a(I158
I483
tp1601
a(I159
I484
tp1602
a(I160
I485
tp1603
a(I161
I486
tp1604
a(I162
I487
tp1605
a(I163
I489
tp1606
a(I164
I491
tp1607
a(I165
I492
tp1608
a(I166
I497
tp1609
a(I167
I498
tp1610
a(I168
I499
tp1611
a(I169
I500
tp1612
a(I170
I507
tp1613
a(I171
I510
tp1614
a(I172
I513
tp1615
a(I173
I514
tp1616
a(I174
I515
tp1617
a(I175
I516
tp1618
a(I176
I517
tp1619
a(I177
I519
tp1620
a(I178
I520
tp1621
a(I179
I521
tp1622
a(I180
I522
tp1623
a(I181
I526
tp1624
a(I182
I528
tp1625
a(I183
I537
tp1626
a(I184
I540
tp1627
a(I185
I541
tp1628
a(I186
I543
tp1629
a(I187
I549
tp1630
a(I188
I551
tp1631
a(I189
I553
tp1632
a(I190
I556
tp1633
a(I191
I565
tp1634
a(I192
I566
tp1635
a(I193
I567
tp1636
a(I194
I568
tp1637
a(I195
I570
tp1638
a(I196
I571
tp1639
a(I197
I572
tp1640
a(I198
I573
tp1641
a(I199
I575
tp1642
a(I200
I576
tp1643
a(I201
I577
tp1644
a(I202
I578
tp1645
a(I203
I579
tp1646
a(I204
I581
tp1647
a(I205
I582
tp1648
a(I206
I583
tp1649
a(I207
I593
tp1650
a(I208
I594
tp1651
a(I209
I598
tp1652
a(I210
I601
tp1653
a(I211
I604
tp1654
a(I212
I608
tp1655
a(I213
I609
tp1656
a(I214
I621
tp1657
a(I215
I625
tp1658
a(I216
I629
tp1659
a(I217
I634
tp1660
a(I218
I638
tp1661
a(I219
I651
tp1662
a(I220
I656
tp1663
a(I221
I658
tp1664
a(I222
I659
tp1665
a(I223
I660
tp1666
a(I224
I678
tp1667
a(I225
I686
tp1668
a(I226
I688
tp1669
a(I227
I690
tp1670
a(I228
I691
tp1671
a(I229
I708
tp1672
a(I230
I709
tp1673
a(I231
I711
tp1674
a(I232
I714
tp1675
a(I233
I716
tp1676
a(I234
I717
tp1677
a(I235
I718
tp1678
a(I236
I719
tp1679
a(I237
I742
tp1680
a(I238
I743
tp1681
a(I239
I744
tp1682
a(I240
I745
tp1683
a(I241
I746
tp1684
aI404
tp1685
a((lp1686
I240
aI17
aI10
a(lp1687
(I0
I97
tp1688
a(I1
I99
tp1689
a(I2
I102
tp1690
a(I3
I103
tp1691
a(I4
I121
tp1692
a(I5
I122
tp1693
a(I6
I123
tp1694
a(I7
I127
tp1695
a(I8
I129
tp1696
a(I9
I150
tp1697
a(I10
I153
tp1698
a(I11
I154
tp1699
a(I12
I155
tp1700
a(I13
I157
tp1701
a(I14
I158
tp1702
a(I15
I160
tp1703
a(I16
I162
tp1704
a(I17
I176
tp1705
a(I18
I177
tp1706
a(I19
I178
tp1707
a(I20
I180
tp1708
a(I21
I181
tp1709
a(I22
I182
tp1710
a(I23
I183
tp1711
a(I24
I184
tp1712
a(I25
I187
tp1713
a(I26
I190
tp1714
a(I27
I191
tp1715
a(I28
I206
tp1716
a(I29
I208
tp1717
a(I30
I209
tp1718
a(I31
I211
tp1719
a(I32
I212
tp1720
a(I33
I213
tp1721
a(I34
I214
tp1722
a(I35
I215
tp1723
a(I36
I216
tp1724
a(I37
I219
tp1725
a(I38
I220
tp1726
a(I39
I228
tp1727
a(I40
I230
tp1728
a(I41
I231
tp1729
a(I42
I232
tp1730
a(I43
I233
tp1731
a(I44
I236
tp1732
a(I45
I237
tp1733
a(I46
I238
tp1734
a(I47
I239
tp1735
a(I48
I242
tp1736
a(I49
I243
tp1737
a(I50
I244
tp1738
a(I51
I246
tp1739
a(I52
I247
tp1740
a(I53
I248
tp1741
a(I54
I260
tp1742
a(I55
I261
tp1743
a(I56
I263
tp1744
a(I57
I264
tp1745
a(I58
I265
tp1746
a(I59
I266
tp1747
a(I60
I268
tp1748
a(I61
I269
tp1749
a(I62
I273
tp1750
a(I63
I274
tp1751
a(I64
I275
tp1752
a(I65
I276
tp1753
a(I66
I277
tp1754
a(I67
I284
tp1755
a(I68
I286
tp1756
a(I69
I287
tp1757
a(I70
I289
tp1758
a(I71
I291
tp1759
a(I72
I293
tp1760
a(I73
I294
tp1761
a(I74
I296
tp1762
a(I75
I297
tp1763
a(I76
I298
tp1764
a(I77
I299
tp1765
a(I78
I300
tp1766
a(I79
I301
tp1767
a(I80
I312
tp1768
a(I81
I313
tp1769
a(I82
I314
tp1770
a(I83
I315
tp1771
a(I84
I316
tp1772
a(I85
I317
tp1773
a(I86
I318
tp1774
a(I87
I319
tp1775
a(I88
I320
tp1776
a(I89
I321
tp1777
a(I90
I322
tp1778
a(I91
I324
tp1779
a(I92
I325
tp1780
a(I93
I326
tp1781
a(I94
I328
tp1782
a(I95
I329
tp1783
a(I96
I330
tp1784
a(I97
I341
tp1785
a(I98
I342
tp1786
a(I99
I344
tp1787
a(I100
I347
tp1788
a(I101
I348
tp1789
a(I102
I350
tp1790
a(I103
I353
tp1791
a(I104
I355
tp1792
a(I105
I357
tp1793
a(I106
I369
tp1794
a(I107
I370
tp1795
a(I108
I371
tp1796
a(I109
I372
tp1797
a(I110
I373
tp1798
a(I111
I376
tp1799
a(I112
I377
tp1800
a(I113
I378
tp1801
a(I114
I379
tp1802
a(I115
I380
tp1803
a(I116
I381
tp1804
a(I117
I383
tp1805
a(I118
I384
tp1806
a(I119
I387
tp1807
a(I120
I397
tp1808
a(I121
I398
tp1809
a(I122
I400
tp1810
a(I123
I401
tp1811
a(I124
I402
tp1812
a(I125
I404
tp1813
a(I126
I406
tp1814
a(I127
I407
tp1815
a(I128
I410
tp1816
a(I129
I413
tp1817
a(I130
I414
tp1818
a(I131
I427
tp1819
a(I132
I431
tp1820
a(I133
I432
tp1821
a(I134
I435
tp1822
a(I135
I436
tp1823
a(I136
I437
tp1824
a(I137
I438
tp1825
a(I138
I440
tp1826
a(I139
I442
tp1827
a(I140
I454
tp1828
a(I141
I455
tp1829
a(I142
I456
tp1830
a(I143
I457
tp1831
a(I144
I458
tp1832
a(I145
I459
tp1833
a(I146
I460
tp1834
a(I147
I462
tp1835
a(I148
I463
tp1836
a(I149
I464
tp1837
a(I150
I465
tp1838
a(I151
I467
tp1839
a(I152
I468
tp1840
a(I153
I471
tp1841
a(I154
I482
tp1842
a(I155
I483
tp1843
a(I156
I485
tp1844
a(I157
I486
tp1845
a(I158
I488
tp1846
a(I159
I489
tp1847
a(I160
I490
tp1848
a(I161
I492
tp1849
a(I162
I494
tp1850
a(I163
I495
tp1851
a(I164
I497
tp1852
a(I165
I498
tp1853
a(I166
I500
tp1854
a(I167
I509
tp1855
a(I168
I510
tp1856
a(I169
I513
tp1857
a(I170
I514
tp1858
a(I171
I515
tp1859
a(I172
I516
tp1860
a(I173
I517
tp1861
a(I174
I519
tp1862
a(I175
I526
tp1863
a(I176
I527
tp1864
a(I177
I528
tp1865
a(I178
I537
tp1866
a(I179
I538
tp1867
a(I180
I541
tp1868
a(I181
I543
tp1869
a(I182
I544
tp1870
a(I183
I547
tp1871
a(I184
I549
tp1872
a(I185
I554
tp1873
a(I186
I565
tp1874
a(I187
I567
tp1875
a(I188
I568
tp1876
a(I189
I569
tp1877
a(I190
I570
tp1878
a(I191
I571
tp1879
a(I192
I573
tp1880
a(I193
I574
tp1881
a(I194
I576
tp1882
a(I195
I577
tp1883
a(I196
I578
tp1884
a(I197
I579
tp1885
a(I198
I582
tp1886
a(I199
I594
tp1887
a(I200
I595
tp1888
a(I201
I596
tp1889
a(I202
I599
tp1890
a(I203
I602
tp1891
a(I204
I605
tp1892
a(I205
I608
tp1893
a(I206
I609
tp1894
a(I207
I622
tp1895
a(I208
I624
tp1896
a(I209
I628
tp1897
a(I210
I631
tp1898
a(I211
I632
tp1899
a(I212
I633
tp1900
a(I213
I636
tp1901
a(I214
I637
tp1902
a(I215
I654
tp1903
a(I216
I656
tp1904
a(I217
I657
tp1905
a(I218
I658
tp1906
a(I219
I659
tp1907
a(I220
I660
tp1908
a(I221
I661
tp1909
a(I222
I662
tp1910
a(I223
I678
tp1911
a(I224
I679
tp1912
a(I225
I680
tp1913
a(I226
I684
tp1914
a(I227
I685
tp1915
a(I228
I689
tp1916
a(I229
I690
tp1917
a(I230
I691
tp1918
a(I231
I693
tp1919
a(I232
I709
tp1920
a(I233
I710
tp1921
a(I234
I711
tp1922
a(I235
I712
tp1923
a(I236
I714
tp1924
a(I237
I718
tp1925
a(I238
I741
tp1926
a(I239
I742
tp1927
aI459
tp1928
a((lp1929
I231
aI19
aI10
a(lp1930
(I0
I99
tp1931
a(I1
I100
tp1932
a(I2
I102
tp1933
a(I3
I120
tp1934
a(I4
I123
tp1935
a(I5
I124
tp1936
a(I6
I125
tp1937
a(I7
I127
tp1938
a(I8
I129
tp1939
a(I9
I134
tp1940
a(I10
I151
tp1941
a(I11
I152
tp1942
a(I12
I153
tp1943
a(I13
I154
tp1944
a(I14
I155
tp1945
a(I15
I156
tp1946
a(I16
I157
tp1947
a(I17
I161
tp1948
a(I18
I162
tp1949
a(I19
I175
tp1950
a(I20
I176
tp1951
a(I21
I179
tp1952
a(I22
I181
tp1953
a(I23
I185
tp1954
a(I24
I188
tp1955
a(I25
I190
tp1956
a(I26
I191
tp1957
a(I27
I192
tp1958
a(I28
I193
tp1959
a(I29
I200
tp1960
a(I30
I201
tp1961
a(I31
I204
tp1962
a(I32
I205
tp1963
a(I33
I209
tp1964
a(I34
I210
tp1965
a(I35
I211
tp1966
a(I36
I212
tp1967
a(I37
I215
tp1968
a(I38
I216
tp1969
a(I39
I219
tp1970
a(I40
I220
tp1971
a(I41
I221
tp1972
a(I42
I228
tp1973
a(I43
I230
tp1974
a(I44
I236
tp1975
a(I45
I238
tp1976
a(I46
I241
tp1977
a(I47
I242
tp1978
a(I48
I244
tp1979
a(I49
I245
tp1980
a(I50
I247
tp1981
a(I51
I248
tp1982
a(I52
I249
tp1983
a(I53
I256
tp1984
a(I54
I259
tp1985
a(I55
I260
tp1986
a(I56
I261
tp1987
a(I57
I263
tp1988
a(I58
I264
tp1989
a(I59
I265
tp1990
a(I60
I267
tp1991
a(I61
I268
tp1992
a(I62
I269
tp1993
a(I63
I272
tp1994
a(I64
I275
tp1995
a(I65
I276
tp1996
a(I66
I288
tp1997
a(I67
I290
tp1998
a(I68
I291
tp1999
a(I69
I293
tp2000
a(I70
I294
tp2001
a(I71
I295
tp2002
a(I72
I296
tp2003
a(I73
I297
tp2004
a(I74
I298
tp2005
a(I75
I299
tp2006
a(I76
I300
tp2007
a(I77
I315
tp2008
a(I78
I316
tp2009
a(I79
I317
tp2010
a(I80
I319
tp2011
a(I81
I320
tp2012
a(I82
I321
tp2013
a(I83
I322
tp2014
a(I84
I323
tp2015
a(I85
I324
tp2016
a(I86
I325
tp2017
a(I87
I326
tp2018
a(I88
I328
tp2019
a(I89
I329
tp2020
a(I90
I330
tp2021
a(I91
I341
tp2022
a(I92
I342
tp2023
a(I93
I343
tp2024
a(I94
I344
tp2025
a(I95
I345
tp2026
a(I96
I346
tp2027
a(I97
I347
tp2028
a(I98
I348
tp2029
a(I99
I349
tp2030
a(I100
I350
tp2031
a(I101
I351
tp2032
a(I102
I353
tp2033
a(I103
I354
tp2034
a(I104
I356
tp2035
a(I105
I370
tp2036
a(I106
I372
tp2037
a(I107
I373
tp2038
a(I108
I374
tp2039
a(I109
I375
tp2040
a(I110
I376
tp2041
a(I111
I377
tp2042
a(I112
I378
tp2043
a(I113
I379
tp2044
a(I114
I380
tp2045
a(I115
I382
tp2046
a(I116
I383
tp2047
a(I117
I386
tp2048
a(I118
I398
tp2049
a(I119
I399
tp2050
a(I120
I400
tp2051
a(I121
I401
tp2052
a(I122
I402
tp2053
a(I123
I404
tp2054
a(I124
I405
tp2055
a(I125
I406
tp2056
a(I126
I408
tp2057
a(I127
I409
tp2058
a(I128
I411
tp2059
a(I129
I415
tp2060
a(I130
I428
tp2061
a(I131
I430
tp2062
a(I132
I431
tp2063
a(I133
I432
tp2064
a(I134
I433
tp2065
a(I135
I434
tp2066
a(I136
I437
tp2067
a(I137
I440
tp2068
a(I138
I441
tp2069
a(I139
I442
tp2070
a(I140
I454
tp2071
a(I141
I455
tp2072
a(I142
I456
tp2073
a(I143
I457
tp2074
a(I144
I459
tp2075
a(I145
I461
tp2076
a(I146
I462
tp2077
a(I147
I463
tp2078
a(I148
I464
tp2079
a(I149
I465
tp2080
a(I150
I466
tp2081
a(I151
I467
tp2082
a(I152
I468
tp2083
a(I153
I473
tp2084
a(I154
I483
tp2085
a(I155
I485
tp2086
a(I156
I486
tp2087
a(I157
I487
tp2088
a(I158
I489
tp2089
a(I159
I490
tp2090
a(I160
I491
tp2091
a(I161
I492
tp2092
a(I162
I493
tp2093
a(I163
I494
tp2094
a(I164
I495
tp2095
a(I165
I498
tp2096
a(I166
I508
tp2097
a(I167
I510
tp2098
a(I168
I512
tp2099
a(I169
I513
tp2100
a(I170
I514
tp2101
a(I171
I515
tp2102
a(I172
I516
tp2103
a(I173
I517
tp2104
a(I174
I519
tp2105
a(I175
I520
tp2106
a(I176
I521
tp2107
a(I177
I522
tp2108
a(I178
I523
tp2109
a(I179
I526
tp2110
a(I180
I527
tp2111
a(I181
I528
tp2112
a(I182
I536
tp2113
a(I183
I537
tp2114
a(I184
I538
tp2115
a(I185
I540
tp2116
a(I186
I541
tp2117
a(I187
I542
tp2118
a(I188
I549
tp2119
a(I189
I550
tp2120
a(I190
I555
tp2121
a(I191
I565
tp2122
a(I192
I568
tp2123
a(I193
I569
tp2124
a(I194
I572
tp2125
a(I195
I574
tp2126
a(I196
I579
tp2127
a(I197
I580
tp2128
a(I198
I592
tp2129
a(I199
I593
tp2130
a(I200
I594
tp2131
a(I201
I595
tp2132
a(I202
I596
tp2133
a(I203
I597
tp2134
a(I204
I599
tp2135
a(I205
I602
tp2136
a(I206
I605
tp2137
a(I207
I606
tp2138
a(I208
I624
tp2139
a(I209
I625
tp2140
a(I210
I627
tp2141
a(I211
I628
tp2142
a(I212
I629
tp2143
a(I213
I631
tp2144
a(I214
I656
tp2145
a(I215
I657
tp2146
a(I216
I658
tp2147
a(I217
I659
tp2148
a(I218
I660
tp2149
a(I219
I682
tp2150
a(I220
I685
tp2151
a(I221
I686
tp2152
a(I222
I687
tp2153
a(I223
I691
tp2154
a(I224
I692
tp2155
a(I225
I693
tp2156
a(I226
I712
tp2157
a(I227
I715
tp2158
a(I228
I717
tp2159
a(I229
I742
tp2160
a(I230
I746
tp2161
aI423
tp2162
asF0.90000000000000002
(lp2163
((lp2164
I154
aI15
aI10
a(lp2165
(I0
I102
tp2166
a(I1
I150
tp2167
a(I2
I151
tp2168
a(I3
I152
tp2169
a(I4
I154
tp2170
a(I5
I155
tp2171
a(I6
I156
tp2172
a(I7
I157
tp2173
a(I8
I158
tp2174
a(I9
I177
tp2175
a(I10
I187
tp2176
a(I11
I188
tp2177
a(I12
I203
tp2178
a(I13
I208
tp2179
a(I14
I210
tp2180
a(I15
I212
tp2181
a(I16
I214
tp2182
a(I17
I220
tp2183
a(I18
I232
tp2184
a(I19
I233
tp2185
a(I20
I236
tp2186
a(I21
I238
tp2187
a(I22
I239
tp2188
a(I23
I240
tp2189
a(I24
I242
tp2190
a(I25
I245
tp2191
a(I26
I246
tp2192
a(I27
I247
tp2193
a(I28
I248
tp2194
a(I29
I260
tp2195
a(I30
I263
tp2196
a(I31
I265
tp2197
a(I32
I266
tp2198
a(I33
I267
tp2199
a(I34
I268
tp2200
a(I35
I269
tp2201
a(I36
I274
tp2202
a(I37
I275
tp2203
a(I38
I276
tp2204
a(I39
I288
tp2205
a(I40
I290
tp2206
a(I41
I291
tp2207
a(I42
I295
tp2208
a(I43
I297
tp2209
a(I44
I298
tp2210
a(I45
I300
tp2211
a(I46
I301
tp2212
a(I47
I304
tp2213
a(I48
I317
tp2214
a(I49
I318
tp2215
a(I50
I319
tp2216
a(I51
I320
tp2217
a(I52
I322
tp2218
a(I53
I323
tp2219
a(I54
I325
tp2220
a(I55
I326
tp2221
a(I56
I330
tp2222
a(I57
I341
tp2223
a(I58
I342
tp2224
a(I59
I343
tp2225
a(I60
I344
tp2226
a(I61
I348
tp2227
a(I62
I349
tp2228
a(I63
I350
tp2229
a(I64
I355
tp2230
a(I65
I370
tp2231
a(I66
I376
tp2232
a(I67
I377
tp2233
a(I68
I378
tp2234
a(I69
I379
tp2235
a(I70
I381
tp2236
a(I71
I382
tp2237
a(I72
I383
tp2238
a(I73
I385
tp2239
a(I74
I398
tp2240
a(I75
I399
tp2241
a(I76
I402
tp2242
a(I77
I404
tp2243
a(I78
I407
tp2244
a(I79
I409
tp2245
a(I80
I427
tp2246
a(I81
I428
tp2247
a(I82
I429
tp2248
a(I83
I430
tp2249
a(I84
I433
tp2250
a(I85
I434
tp2251
a(I86
I435
tp2252
a(I87
I437
tp2253
a(I88
I438
tp2254
a(I89
I441
tp2255
a(I90
I455
tp2256
a(I91
I456
tp2257
a(I92
I457
tp2258
a(I93
I458
tp2259
a(I94
I459
tp2260
a(I95
I460
tp2261
a(I96
I461
tp2262
a(I97
I462
tp2263
a(I98
I466
tp2264
a(I99
I468
tp2265
a(I100
I485
tp2266
a(I101
I486
tp2267
a(I102
I487
tp2268
a(I103
I488
tp2269
a(I104
I490
tp2270
a(I105
I492
tp2271
a(I106
I495
tp2272
a(I107
I498
tp2273
a(I108
I513
tp2274
a(I109
I515
tp2275
a(I110
I516
tp2276
a(I111
I517
tp2277
a(I112
I519
tp2278
a(I113
I520
tp2279
a(I114
I521
tp2280
a(I115
I524
tp2281
a(I116
I528
tp2282
a(I117
I536
tp2283
a(I118
I540
tp2284
a(I119
I541
tp2285
a(I120
I546
tp2286
a(I121
I547
tp2287
a(I122
I549
tp2288
a(I123
I556
tp2289
a(I124
I568
tp2290
a(I125
I572
tp2291
a(I126
I574
tp2292
a(I127
I579
tp2293
a(I128
I580
tp2294
a(I129
I594
tp2295
a(I130
I595
tp2296
a(I131
I598
tp2297
a(I132
I600
tp2298
a(I133
I603
tp2299
a(I134
I607
tp2300
a(I135
I608
tp2301
a(I136
I621
tp2302
a(I137
I626
tp2303
a(I138
I628
tp2304
a(I139
I629
tp2305
a(I140
I631
tp2306
a(I141
I637
tp2307
a(I142
I653
tp2308
a(I143
I659
tp2309
a(I144
I664
tp2310
a(I145
I684
tp2311
a(I146
I689
tp2312
a(I147
I692
tp2313
a(I148
I709
tp2314
a(I149
I712
tp2315
a(I150
I713
tp2316
a(I151
I714
tp2317
a(I152
I716
tp2318
a(I153
I742
tp2319
aI283
tp2320
a((lp2321
I172
aI18
aI10
a(lp2322
(I0
I99
tp2323
a(I1
I101
tp2324
a(I2
I121
tp2325
a(I3
I150
tp2326
a(I4
I156
tp2327
a(I5
I161
tp2328
a(I6
I162
tp2329
a(I7
I178
tp2330
a(I8
I182
tp2331
a(I9
I184
tp2332
a(I10
I185
tp2333
a(I11
I188
tp2334
a(I12
I189
tp2335
a(I13
I191
tp2336
a(I14
I206
tp2337
a(I15
I210
tp2338
a(I16
I211
tp2339
a(I17
I212
tp2340
a(I18
I220
tp2341
a(I19
I228
tp2342
a(I20
I231
tp2343
a(I21
I233
tp2344
a(I22
I235
tp2345
a(I23
I236
tp2346
a(I24
I238
tp2347
a(I25
I240
tp2348
a(I27
I242
tp2349
a(I28
I244
tp2350
a(I29
I245
tp2351
a(I30
I247
tp2352
a(I31
I248
tp2353
a(I32
I261
tp2354
a(I33
I266
tp2355
a(I34
I267
tp2356
a(I35
I269
tp2357
a(I36
I270
tp2358
a(I37
I271
tp2359
a(I38
I275
tp2360
a(I39
I276
tp2361
a(I40
I288
tp2362
a(I42
I293
tp2363
a(I43
I294
tp2364
a(I44
I295
tp2365
a(I45
I296
tp2366
a(I46
I298
tp2367
a(I47
I299
tp2368
a(I48
I300
tp2369
a(I49
I303
tp2370
a(I50
I304
tp2371
a(I51
I315
tp2372
a(I52
I316
tp2373
a(I53
I317
tp2374
a(I54
I318
tp2375
a(I55
I319
tp2376
a(I56
I320
tp2377
a(I57
I321
tp2378
a(I58
I322
tp2379
a(I59
I323
tp2380
a(I60
I325
tp2381
a(I61
I326
tp2382
a(I62
I328
tp2383
a(I63
I329
tp2384
a(I64
I330
tp2385
a(I65
I331
tp2386
a(I66
I341
tp2387
a(I67
I342
tp2388
a(I68
I343
tp2389
a(I69
I344
tp2390
a(I70
I345
tp2391
a(I71
I346
tp2392
a(I72
I347
tp2393
a(I73
I348
tp2394
a(I74
I350
tp2395
a(I75
I351
tp2396
a(I76
I352
tp2397
a(I77
I354
tp2398
a(I78
I358
tp2399
a(I79
I359
tp2400
a(I80
I369
tp2401
a(I81
I370
tp2402
a(I82
I372
tp2403
a(I83
I375
tp2404
a(I84
I376
tp2405
a(I85
I377
tp2406
a(I86
I378
tp2407
a(I87
I381
tp2408
a(I88
I383
tp2409
a(I89
I385
tp2410
a(I90
I400
tp2411
a(I91
I402
tp2412
a(I92
I404
tp2413
a(I93
I406
tp2414
a(I94
I408
tp2415
a(I95
I426
tp2416
a(I96
I428
tp2417
a(I97
I429
tp2418
a(I98
I431
tp2419
a(I99
I432
tp2420
a(I100
I433
tp2421
a(I101
I434
tp2422
a(I102
I437
tp2423
a(I103
I454
tp2424
a(I104
I456
tp2425
a(I105
I460
tp2426
a(I106
I462
tp2427
a(I107
I464
tp2428
a(I108
I466
tp2429
a(I109
I467
tp2430
a(I110
I468
tp2431
a(I111
I472
tp2432
a(I112
I482
tp2433
a(I113
I483
tp2434
a(I114
I485
tp2435
a(I115
I486
tp2436
a(I116
I487
tp2437
a(I117
I488
tp2438
a(I118
I489
tp2439
a(I119
I490
tp2440
a(I120
I491
tp2441
a(I121
I493
tp2442
a(I122
I494
tp2443
a(I123
I496
tp2444
a(I124
I497
tp2445
a(I125
I499
tp2446
a(I126
I500
tp2447
a(I127
I501
tp2448
a(I128
I512
tp2449
a(I129
I513
tp2450
a(I130
I514
tp2451
a(I131
I515
tp2452
a(I132
I516
tp2453
a(I133
I517
tp2454
a(I134
I518
tp2455
a(I135
I519
tp2456
a(I136
I521
tp2457
a(I137
I524
tp2458
a(I138
I527
tp2459
a(I139
I528
tp2460
a(I140
I537
tp2461
a(I141
I539
tp2462
a(I142
I542
tp2463
a(I143
I543
tp2464
a(I144
I545
tp2465
a(I145
I547
tp2466
a(I146
I552
tp2467
a(I147
I554
tp2468
a(I148
I567
tp2469
a(I149
I570
tp2470
a(I150
I571
tp2471
a(I151
I576
tp2472
a(I152
I577
tp2473
a(I153
I578
tp2474
a(I154
I579
tp2475
a(I155
I594
tp2476
a(I156
I596
tp2477
a(I157
I599
tp2478
a(I158
I600
tp2479
a(I159
I602
tp2480
a(I160
I607
tp2481
a(I161
I608
tp2482
a(I162
I621
tp2483
a(I163
I622
tp2484
a(I164
I623
tp2485
a(I165
I624
tp2486
a(I166
I625
tp2487
a(I167
I630
tp2488
a(I168
I631
tp2489
a(I169
I653
tp2490
a(I170
I658
tp2491
a(I171
I682
tp2492
a(I172
I710
tp2493
a(I173
I711
tp2494
aI314
tp2495
a((lp2496
I162
aI16
aI10
a(lp2497
(I0
I98
tp2498
a(I1
I99
tp2499
a(I2
I101
tp2500
a(I3
I103
tp2501
a(I4
I150
tp2502
a(I5
I153
tp2503
a(I6
I155
tp2504
a(I7
I157
tp2505
a(I8
I158
tp2506
a(I9
I176
tp2507
a(I10
I178
tp2508
a(I11
I182
tp2509
a(I12
I184
tp2510
a(I13
I187
tp2511
a(I14
I188
tp2512
a(I15
I190
tp2513
a(I16
I203
tp2514
a(I17
I208
tp2515
a(I18
I210
tp2516
a(I19
I211
tp2517
a(I20
I212
tp2518
a(I21
I213
tp2519
a(I22
I214
tp2520
a(I23
I215
tp2521
a(I24
I216
tp2522
a(I25
I219
tp2523
a(I26
I220
tp2524
a(I27
I233
tp2525
a(I28
I234
tp2526
a(I29
I237
tp2527
a(I30
I238
tp2528
a(I31
I242
tp2529
a(I32
I243
tp2530
a(I33
I244
tp2531
a(I34
I245
tp2532
a(I35
I247
tp2533
a(I36
I263
tp2534
a(I37
I265
tp2535
a(I38
I266
tp2536
a(I39
I267
tp2537
a(I40
I269
tp2538
a(I41
I270
tp2539
a(I42
I272
tp2540
a(I43
I275
tp2541
a(I44
I289
tp2542
a(I45
I290
tp2543
a(I46
I292
tp2544
a(I47
I293
tp2545
a(I48
I294
tp2546
a(I49
I296
tp2547
a(I50
I297
tp2548
a(I51
I298
tp2549
a(I52
I299
tp2550
a(I53
I300
tp2551
a(I54
I301
tp2552
a(I55
I302
tp2553
a(I56
I303
tp2554
a(I57
I315
tp2555
a(I58
I316
tp2556
a(I59
I317
tp2557
a(I60
I318
tp2558
a(I61
I321
tp2559
a(I62
I323
tp2560
a(I63
I324
tp2561
a(I64
I326
tp2562
a(I65
I342
tp2563
a(I66
I343
tp2564
a(I67
I346
tp2565
a(I68
I347
tp2566
a(I69
I349
tp2567
a(I70
I350
tp2568
a(I71
I353
tp2569
a(I72
I355
tp2570
a(I73
I358
tp2571
a(I74
I370
tp2572
a(I75
I372
tp2573
a(I76
I373
tp2574
a(I77
I375
tp2575
a(I78
I376
tp2576
a(I79
I377
tp2577
a(I80
I378
tp2578
a(I81
I379
tp2579
a(I82
I382
tp2580
a(I83
I383
tp2581
a(I84
I386
tp2582
a(I85
I401
tp2583
a(I86
I406
tp2584
a(I87
I411
tp2585
a(I88
I412
tp2586
a(I89
I415
tp2587
a(I90
I427
tp2588
a(I91
I428
tp2589
a(I92
I429
tp2590
a(I93
I430
tp2591
a(I94
I433
tp2592
a(I95
I434
tp2593
a(I96
I436
tp2594
a(I97
I437
tp2595
a(I98
I454
tp2596
a(I99
I455
tp2597
a(I100
I457
tp2598
a(I101
I459
tp2599
a(I102
I460
tp2600
a(I103
I461
tp2601
a(I104
I462
tp2602
a(I105
I463
tp2603
a(I106
I464
tp2604
a(I107
I467
tp2605
a(I108
I469
tp2606
a(I109
I481
tp2607
a(I110
I483
tp2608
a(I111
I485
tp2609
a(I112
I486
tp2610
a(I113
I487
tp2611
a(I114
I488
tp2612
a(I115
I489
tp2613
a(I116
I490
tp2614
a(I117
I491
tp2615
a(I118
I494
tp2616
a(I119
I511
tp2617
a(I120
I512
tp2618
a(I121
I513
tp2619
a(I122
I515
tp2620
a(I123
I516
tp2621
a(I124
I517
tp2622
a(I125
I522
tp2623
a(I126
I525
tp2624
a(I127
I540
tp2625
a(I128
I541
tp2626
a(I129
I543
tp2627
a(I130
I545
tp2628
a(I131
I551
tp2629
a(I132
I568
tp2630
a(I133
I569
tp2631
a(I134
I570
tp2632
a(I135
I573
tp2633
a(I136
I574
tp2634
a(I137
I575
tp2635
a(I138
I576
tp2636
a(I139
I578
tp2637
a(I140
I597
tp2638
a(I141
I599
tp2639
a(I142
I604
tp2640
a(I143
I606
tp2641
a(I144
I607
tp2642
a(I145
I624
tp2643
a(I146
I625
tp2644
a(I147
I627
tp2645
a(I148
I629
tp2646
a(I150
I653
tp2647
a(I151
I657
tp2648
a(I152
I658
tp2649
a(I153
I659
tp2650
a(I154
I660
tp2651
a(I155
I664
tp2652
a(I156
I679
tp2653
a(I157
I682
tp2654
a(I158
I684
tp2655
a(I159
I691
tp2656
a(I160
I692
tp2657
a(I161
I716
tp2658
a(I162
I717
tp2659
aI296
tp2660
a((lp2661
I199
aI16
aI10
a(lp2662
(I0
I96
tp2663
a(I1
I97
tp2664
a(I2
I98
tp2665
a(I3
I101
tp2666
a(I4
I102
tp2667
a(I5
I123
tp2668
a(I6
I124
tp2669
a(I7
I125
tp2670
a(I8
I126
tp2671
a(I9
I128
tp2672
a(I10
I130
tp2673
a(I11
I147
tp2674
a(I12
I150
tp2675
a(I13
I151
tp2676
a(I14
I152
tp2677
a(I15
I153
tp2678
a(I16
I154
tp2679
a(I17
I156
tp2680
a(I18
I157
tp2681
a(I19
I161
tp2682
a(I20
I162
tp2683
a(I21
I177
tp2684
a(I22
I178
tp2685
a(I23
I180
tp2686
a(I24
I183
tp2687
a(I25
I185
tp2688
a(I26
I186
tp2689
a(I27
I187
tp2690
a(I28
I190
tp2691
a(I29
I191
tp2692
a(I30
I203
tp2693
a(I31
I208
tp2694
a(I32
I209
tp2695
a(I33
I210
tp2696
a(I34
I212
tp2697
a(I35
I213
tp2698
a(I36
I218
tp2699
a(I37
I219
tp2700
a(I38
I220
tp2701
a(I39
I228
tp2702
a(I40
I232
tp2703
a(I41
I234
tp2704
a(I42
I237
tp2705
a(I43
I238
tp2706
a(I44
I239
tp2707
a(I45
I242
tp2708
a(I46
I243
tp2709
a(I47
I246
tp2710
a(I48
I247
tp2711
a(I49
I248
tp2712
a(I50
I249
tp2713
a(I51
I261
tp2714
a(I52
I263
tp2715
a(I53
I264
tp2716
a(I54
I265
tp2717
a(I55
I266
tp2718
a(I56
I267
tp2719
a(I57
I268
tp2720
a(I58
I269
tp2721
a(I59
I271
tp2722
a(I60
I272
tp2723
a(I61
I273
tp2724
a(I62
I276
tp2725
a(I63
I277
tp2726
a(I64
I287
tp2727
a(I65
I288
tp2728
a(I66
I289
tp2729
a(I67
I290
tp2730
a(I68
I292
tp2731
a(I69
I293
tp2732
a(I70
I294
tp2733
a(I71
I295
tp2734
a(I72
I296
tp2735
a(I73
I297
tp2736
a(I74
I298
tp2737
a(I75
I299
tp2738
a(I76
I301
tp2739
a(I77
I316
tp2740
a(I78
I319
tp2741
a(I79
I320
tp2742
a(I80
I321
tp2743
a(I81
I322
tp2744
a(I82
I325
tp2745
a(I83
I326
tp2746
a(I84
I328
tp2747
a(I85
I329
tp2748
a(I86
I330
tp2749
a(I87
I342
tp2750
a(I88
I344
tp2751
a(I89
I345
tp2752
a(I90
I346
tp2753
a(I91
I347
tp2754
a(I92
I348
tp2755
a(I93
I350
tp2756
a(I94
I356
tp2757
a(I95
I357
tp2758
a(I96
I358
tp2759
a(I97
I359
tp2760
a(I98
I369
tp2761
a(I99
I374
tp2762
a(I100
I376
tp2763
a(I101
I377
tp2764
a(I102
I378
tp2765
a(I103
I386
tp2766
a(I104
I401
tp2767
a(I105
I403
tp2768
a(I106
I406
tp2769
a(I107
I407
tp2770
a(I108
I408
tp2771
a(I109
I409
tp2772
a(I110
I410
tp2773
a(I111
I411
tp2774
a(I112
I412
tp2775
a(I113
I414
tp2776
a(I114
I415
tp2777
a(I115
I427
tp2778
a(I116
I428
tp2779
a(I117
I429
tp2780
a(I118
I430
tp2781
a(I119
I432
tp2782
a(I120
I435
tp2783
a(I121
I436
tp2784
a(I122
I437
tp2785
a(I123
I439
tp2786
a(I124
I441
tp2787
a(I125
I442
tp2788
a(I126
I453
tp2789
a(I127
I454
tp2790
a(I128
I456
tp2791
a(I129
I457
tp2792
a(I130
I458
tp2793
a(I131
I459
tp2794
a(I132
I462
tp2795
a(I133
I463
tp2796
a(I134
I464
tp2797
a(I135
I469
tp2798
a(I136
I470
tp2799
a(I137
I482
tp2800
a(I138
I483
tp2801
a(I139
I485
tp2802
a(I140
I486
tp2803
a(I141
I488
tp2804
a(I142
I492
tp2805
a(I143
I496
tp2806
a(I144
I510
tp2807
a(I145
I512
tp2808
a(I146
I513
tp2809
a(I147
I514
tp2810
a(I148
I515
tp2811
a(I149
I516
tp2812
a(I150
I517
tp2813
a(I151
I518
tp2814
a(I152
I523
tp2815
a(I153
I525
tp2816
a(I154
I526
tp2817
a(I155
I539
tp2818
a(I156
I540
tp2819
a(I157
I543
tp2820
a(I158
I546
tp2821
a(I159
I551
tp2822
a(I160
I555
tp2823
a(I161
I556
tp2824
a(I162
I567
tp2825
a(I163
I568
tp2826
a(I164
I569
tp2827
a(I165
I570
tp2828
a(I166
I571
tp2829
a(I167
I573
tp2830
a(I168
I574
tp2831
a(I169
I576
tp2832
a(I170
I577
tp2833
a(I171
I579
tp2834
a(I172
I580
tp2835
a(I173
I583
tp2836
a(I174
I596
tp2837
a(I175
I597
tp2838
a(I176
I598
tp2839
a(I177
I599
tp2840
a(I178
I603
tp2841
a(I179
I605
tp2842
a(I180
I623
tp2843
a(I181
I624
tp2844
a(I182
I625
tp2845
a(I183
I632
tp2846
a(I184
I654
tp2847
a(I185
I655
tp2848
a(I186
I656
tp2849
a(I187
I658
tp2850
a(I188
I659
tp2851
a(I189
I679
tp2852
a(I190
I680
tp2853
a(I191
I683
tp2854
a(I192
I685
tp2855
a(I194
I708
tp2856
a(I195
I709
tp2857
a(I196
I711
tp2858
a(I197
I717
tp2859
a(I198
I719
tp2860
a(I199
I746
tp2861
aI331
tp2862
a((lp2863
I180
aI17
aI10
a(lp2864
(I0
I100
tp2865
a(I1
I122
tp2866
a(I2
I123
tp2867
a(I3
I127
tp2868
a(I4
I132
tp2869
a(I5
I150
tp2870
a(I6
I151
tp2871
a(I7
I152
tp2872
a(I8
I153
tp2873
a(I9
I154
tp2874
a(I10
I156
tp2875
a(I11
I157
tp2876
a(I12
I158
tp2877
a(I13
I162
tp2878
a(I14
I176
tp2879
a(I15
I178
tp2880
a(I16
I180
tp2881
a(I17
I181
tp2882
a(I18
I182
tp2883
a(I19
I183
tp2884
a(I20
I184
tp2885
a(I21
I186
tp2886
a(I22
I188
tp2887
a(I23
I190
tp2888
a(I24
I209
tp2889
a(I25
I210
tp2890
a(I26
I211
tp2891
a(I27
I214
tp2892
a(I28
I215
tp2893
a(I29
I216
tp2894
a(I30
I219
tp2895
a(I31
I220
tp2896
a(I32
I228
tp2897
a(I33
I232
tp2898
a(I34
I233
tp2899
a(I35
I236
tp2900
a(I36
I237
tp2901
a(I37
I241
tp2902
a(I38
I243
tp2903
a(I39
I248
tp2904
a(I40
I249
tp2905
a(I41
I261
tp2906
a(I42
I262
tp2907
a(I43
I265
tp2908
a(I44
I266
tp2909
a(I45
I268
tp2910
a(I46
I269
tp2911
a(I47
I270
tp2912
a(I48
I275
tp2913
a(I49
I288
tp2914
a(I50
I290
tp2915
a(I51
I293
tp2916
a(I52
I294
tp2917
a(I53
I295
tp2918
a(I54
I296
tp2919
a(I55
I297
tp2920
a(I56
I298
tp2921
a(I57
I299
tp2922
a(I58
I300
tp2923
a(I59
I301
tp2924
a(I60
I302
tp2925
a(I61
I316
tp2926
a(I62
I317
tp2927
a(I63
I318
tp2928
a(I64
I319
tp2929
a(I65
I320
tp2930
a(I66
I322
tp2931
a(I67
I323
tp2932
a(I68
I325
tp2933
a(I69
I328
tp2934
a(I70
I329
tp2935
a(I71
I330
tp2936
a(I73
I343
tp2937
a(I74
I344
tp2938
a(I75
I345
tp2939
a(I76
I346
tp2940
a(I77
I347
tp2941
a(I78
I349
tp2942
a(I79
I350
tp2943
a(I80
I352
tp2944
a(I82
I355
tp2945
a(I83
I356
tp2946
a(I84
I369
tp2947
a(I85
I371
tp2948
a(I86
I372
tp2949
a(I87
I375
tp2950
a(I88
I376
tp2951
a(I89
I378
tp2952
a(I90
I379
tp2953
a(I92
I400
tp2954
a(I93
I401
tp2955
a(I94
I403
tp2956
a(I95
I404
tp2957
a(I96
I405
tp2958
a(I97
I406
tp2959
a(I98
I410
tp2960
a(I99
I411
tp2961
a(I100
I414
tp2962
a(I101
I426
tp2963
a(I102
I427
tp2964
a(I103
I430
tp2965
a(I104
I433
tp2966
a(I105
I435
tp2967
a(I106
I439
tp2968
a(I107
I443
tp2969
a(I108
I453
tp2970
a(I109
I454
tp2971
a(I110
I455
tp2972
a(I111
I456
tp2973
a(I112
I459
tp2974
a(I113
I461
tp2975
a(I114
I462
tp2976
a(I115
I464
tp2977
a(I116
I465
tp2978
a(I117
I468
tp2979
a(I118
I469
tp2980
a(I119
I483
tp2981
a(I120
I485
tp2982
a(I121
I486
tp2983
a(I122
I487
tp2984
a(I123
I488
tp2985
a(I124
I489
tp2986
a(I125
I492
tp2987
a(I126
I495
tp2988
a(I127
I497
tp2989
a(I128
I498
tp2990
a(I129
I514
tp2991
a(I130
I515
tp2992
a(I131
I516
tp2993
a(I132
I517
tp2994
a(I133
I518
tp2995
a(I134
I522
tp2996
a(I135
I525
tp2997
a(I136
I527
tp2998
a(I137
I540
tp2999
a(I138
I541
tp3000
a(I139
I543
tp3001
a(I140
I544
tp3002
a(I141
I546
tp3003
a(I142
I548
tp3004
a(I143
I549
tp3005
a(I144
I554
tp3006
a(I145
I565
tp3007
a(I146
I567
tp3008
a(I147
I568
tp3009
a(I148
I569
tp3010
a(I149
I570
tp3011
a(I150
I575
tp3012
a(I151
I576
tp3013
a(I152
I578
tp3014
a(I153
I579
tp3015
a(I154
I580
tp3016
a(I155
I593
tp3017
a(I156
I594
tp3018
a(I157
I595
tp3019
a(I158
I596
tp3020
a(I159
I599
tp3021
a(I160
I601
tp3022
a(I161
I602
tp3023
a(I162
I603
tp3024
a(I163
I607
tp3025
a(I164
I628
tp3026
a(I165
I629
tp3027
a(I166
I631
tp3028
a(I167
I634
tp3029
a(I168
I636
tp3030
a(I169
I651
tp3031
a(I170
I652
tp3032
a(I171
I654
tp3033
a(I172
I656
tp3034
a(I173
I657
tp3035
a(I174
I659
tp3036
a(I175
I660
tp3037
a(I176
I661
tp3038
a(I177
I681
tp3039
a(I178
I685
tp3040
a(I179
I707
tp3041
a(I180
I708
tp3042
a(I181
I716
tp3043
a(I182
I717
tp3044
aI319
tp3045
asF0.69999999999999996
(lp3046
((lp3047
I28
aI14
aI10
a(lp3048
(I0
I156
tp3049
a(I1
I179
tp3050
a(I2
I212
tp3051
a(I3
I213
tp3052
a(I4
I238
tp3053
a(I5
I245
tp3054
a(I6
I248
tp3055
a(I7
I275
tp3056
a(I8
I297
tp3057
a(I9
I316
tp3058
a(I10
I319
tp3059
a(I11
I328
tp3060
a(I12
I330
tp3061
a(I13
I349
tp3062
a(I14
I371
tp3063
a(I15
I373
tp3064
a(I16
I433
tp3065
a(I17
I461
tp3066
a(I18
I485
tp3067
a(I19
I486
tp3068
a(I20
I490
tp3069
a(I21
I515
tp3070
a(I23
I543
tp3071
a(I24
I567
tp3072
a(I25
I570
tp3073
a(I26
I573
tp3074
a(I27
I600
tp3075
a(I28
I656
tp3076
aI62
tp3077
a((lp3078
I46
aI15
aI10
a(lp3079
(I0
I101
tp3080
a(I1
I157
tp3081
a(I2
I181
tp3082
a(I3
I187
tp3083
a(I4
I219
tp3084
a(I5
I233
tp3085
a(I6
I247
tp3086
a(I7
I248
tp3087
a(I8
I272
tp3088
a(I9
I296
tp3089
a(I10
I297
tp3090
a(I11
I320
tp3091
a(I12
I321
tp3092
a(I13
I322
tp3093
a(I14
I327
tp3094
a(I15
I328
tp3095
a(I16
I329
tp3096
a(I17
I330
tp3097
a(I18
I331
tp3098
a(I19
I344
tp3099
a(I20
I345
tp3100
a(I21
I347
tp3101
a(I22
I348
tp3102
a(I23
I352
tp3103
a(I24
I358
tp3104
a(I25
I359
tp3105
a(I26
I375
tp3106
a(I27
I377
tp3107
a(I28
I402
tp3108
a(I29
I405
tp3109
a(I30
I428
tp3110
a(I31
I434
tp3111
a(I32
I462
tp3112
a(I33
I486
tp3113
a(I34
I487
tp3114
a(I35
I514
tp3115
a(I36
I515
tp3116
a(I37
I516
tp3117
a(I38
I517
tp3118
a(I39
I522
tp3119
a(I40
I539
tp3120
a(I41
I549
tp3121
a(I42
I567
tp3122
a(I43
I569
tp3123
a(I44
I570
tp3124
a(I45
I713
tp3125
aI87
tp3126
a((lp3127
I45
aI18
aI10
a(lp3128
(I0
I99
tp3129
a(I1
I100
tp3130
a(I2
I127
tp3131
a(I3
I150
tp3132
a(I4
I157
tp3133
a(I5
I181
tp3134
a(I6
I187
tp3135
a(I7
I212
tp3136
a(I8
I214
tp3137
a(I9
I216
tp3138
a(I10
I238
tp3139
a(I11
I247
tp3140
a(I12
I248
tp3141
a(I13
I269
tp3142
a(I14
I319
tp3143
a(I15
I322
tp3144
a(I16
I326
tp3145
a(I17
I327
tp3146
a(I18
I329
tp3147
a(I19
I349
tp3148
a(I20
I350
tp3149
a(I21
I351
tp3150
a(I22
I353
tp3151
a(I23
I374
tp3152
a(I24
I378
tp3153
a(I25
I379
tp3154
a(I26
I406
tp3155
a(I27
I409
tp3156
a(I28
I410
tp3157
a(I29
I412
tp3158
a(I30
I429
tp3159
a(I31
I459
tp3160
a(I32
I463
tp3161
a(I33
I464
tp3162
a(I34
I485
tp3163
a(I35
I486
tp3164
a(I37
I490
tp3165
a(I38
I516
tp3166
a(I39
I543
tp3167
a(I40
I570
tp3168
a(I41
I572
tp3169
a(I42
I598
tp3170
a(I43
I606
tp3171
a(I44
I625
tp3172
a(I45
I712
tp3173
aI100
tp3174
a((lp3175
I30
aI14
aI10
a(lp3176
(I2
I127
tp3177
a(I3
I150
tp3178
a(I4
I155
tp3179
a(I5
I211
tp3180
a(I6
I243
tp3181
a(I7
I262
tp3182
a(I8
I269
tp3183
a(I9
I274
tp3184
a(I10
I299
tp3185
a(I11
I318
tp3186
a(I12
I343
tp3187
a(I13
I378
tp3188
a(I14
I406
tp3189
a(I15
I409
tp3190
a(I16
I431
tp3191
a(I17
I455
tp3192
a(I18
I456
tp3193
a(I19
I485
tp3194
a(I20
I486
tp3195
a(I21
I487
tp3196
a(I22
I491
tp3197
a(I24
I510
tp3198
a(I25
I514
tp3199
a(I26
I520
tp3200
a(I27
I542
tp3201
a(I28
I543
tp3202
a(I29
I550
tp3203
a(I30
I568
tp3204
a(I31
I605
tp3205
a(I32
I629
tp3206
aI72
tp3207
a((lp3208
I33
aI15
aI10
a(lp3209
(I0
I150
tp3210
a(I1
I154
tp3211
a(I3
I206
tp3212
a(I4
I211
tp3213
a(I5
I236
tp3214
a(I6
I269
tp3215
a(I7
I300
tp3216
a(I8
I317
tp3217
a(I9
I318
tp3218
a(I10
I320
tp3219
a(I11
I345
tp3220
a(I12
I346
tp3221
a(I13
I353
tp3222
a(I14
I354
tp3223
a(I15
I378
tp3224
a(I16
I379
tp3225
a(I17
I410
tp3226
a(I18
I428
tp3227
a(I19
I434
tp3228
a(I20
I441
tp3229
a(I21
I461
tp3230
a(I22
I467
tp3231
a(I23
I487
tp3232
a(I24
I489
tp3233
a(I25
I515
tp3234
a(I26
I516
tp3235
a(I27
I540
tp3236
a(I28
I570
tp3237
a(I29
I577
tp3238
a(I30
I594
tp3239
a(I31
I601
tp3240
a(I32
I604
tp3241
a(I33
I656
tp3242
aI75
tp3243
as.