(dp1
F0.96999999999999997
(lp2
((lp3
I395
aI18
aI10
a(lp4
(I0
I68
tp5
a(I1
I69
tp6
a(I2
I70
tp7
a(I3
I94
tp8
a(I4
I95
tp9
a(I5
I96
tp10
a(I6
I97
tp11
a(I7
I99
tp12
a(I8
I100
tp13
a(I9
I101
tp14
a(I10
I102
tp15
a(I11
I120
tp16
a(I12
I121
tp17
a(I13
I122
tp18
a(I14
I123
tp19
a(I15
I124
tp20
a(I16
I125
tp21
a(I17
I126
tp22
a(I18
I127
tp23
a(I19
I130
tp24
a(I20
I131
tp25
a(I21
I132
tp26
a(I22
I133
tp27
a(I23
I134
tp28
a(I24
I145
tp29
a(I25
I148
tp30
a(I26
I149
tp31
a(I27
I150
tp32
a(I28
I151
tp33
a(I29
I152
tp34
a(I30
I153
tp35
a(I31
I154
tp36
a(I33
I157
tp37
a(I34
I158
tp38
a(I35
I159
tp39
a(I36
I160
tp40
a(I37
I161
tp41
a(I38
I162
tp42
a(I39
I173
tp43
a(I40
I174
tp44
a(I41
I175
tp45
a(I42
I176
tp46
a(I43
I177
tp47
a(I44
I179
tp48
a(I45
I180
tp49
a(I46
I181
tp50
a(I47
I182
tp51
a(I48
I183
tp52
a(I49
I184
tp53
a(I50
I185
tp54
a(I51
I186
tp55
a(I52
I187
tp56
a(I53
I188
tp57
a(I54
I189
tp58
a(I55
I191
tp59
a(I56
I192
tp60
a(I57
I193
tp61
a(I58
I200
tp62
a(I59
I203
tp63
a(I60
I204
tp64
a(I61
I206
tp65
a(I62
I207
tp66
a(I63
I208
tp67
a(I64
I209
tp68
a(I65
I210
tp69
a(I66
I211
tp70
a(I67
I212
tp71
a(I68
I213
tp72
a(I69
I214
tp73
a(I70
I215
tp74
a(I71
I216
tp75
a(I72
I217
tp76
a(I73
I218
tp77
a(I74
I219
tp78
a(I75
I220
tp79
a(I76
I221
tp80
a(I77
I228
tp81
a(I78
I231
tp82
a(I79
I232
tp83
a(I80
I233
tp84
a(I81
I234
tp85
a(I82
I235
tp86
a(I83
I236
tp87
a(I84
I237
tp88
a(I85
I238
tp89
a(I86
I239
tp90
a(I87
I240
tp91
a(I88
I241
tp92
a(I89
I242
tp93
a(I90
I243
tp94
a(I91
I244
tp95
a(I92
I245
tp96
a(I93
I246
tp97
a(I94
I247
tp98
a(I95
I248
tp99
a(I96
I249
tp100
a(I97
I256
tp101
a(I98
I257
tp102
a(I99
I258
tp103
a(I100
I259
tp104
a(I101
I260
tp105
a(I102
I261
tp106
a(I103
I263
tp107
a(I104
I264
tp108
a(I105
I266
tp109
a(I106
I267
tp110
a(I107
I269
tp111
a(I108
I270
tp112
a(I109
I271
tp113
a(I110
I272
tp114
a(I111
I273
tp115
a(I112
I274
tp116
a(I113
I275
tp117
a(I114
I276
tp118
a(I115
I283
tp119
a(I116
I286
tp120
a(I117
I287
tp121
a(I118
I288
tp122
a(I119
I289
tp123
a(I120
I290
tp124
a(I121
I291
tp125
a(I122
I292
tp126
a(I123
I293
tp127
a(I124
I294
tp128
a(I125
I295
tp129
a(I126
I296
tp130
a(I127
I297
tp131
a(I128
I298
tp132
a(I129
I299
tp133
a(I130
I300
tp134
a(I131
I301
tp135
a(I132
I302
tp136
a(I133
I303
tp137
a(I134
I304
tp138
a(I135
I305
tp139
a(I136
I311
tp140
a(I137
I312
tp141
a(I138
I313
tp142
a(I139
I314
tp143
a(I140
I315
tp144
a(I141
I316
tp145
a(I142
I317
tp146
a(I143
I318
tp147
a(I144
I319
tp148
a(I145
I320
tp149
a(I146
I321
tp150
a(I147
I322
tp151
a(I148
I323
tp152
a(I149
I324
tp153
a(I150
I325
tp154
a(I151
I326
tp155
a(I152
I327
tp156
a(I153
I328
tp157
a(I154
I329
tp158
a(I155
I330
tp159
a(I156
I331
tp160
a(I157
I332
tp161
a(I158
I339
tp162
a(I159
I340
tp163
a(I160
I341
tp164
a(I161
I342
tp165
a(I162
I343
tp166
a(I163
I344
tp167
a(I164
I345
tp168
a(I165
I346
tp169
a(I166
I347
tp170
a(I167
I348
tp171
a(I168
I349
tp172
a(I169
I350
tp173
a(I170
I351
tp174
a(I171
I352
tp175
a(I172
I353
tp176
a(I173
I354
tp177
a(I174
I355
tp178
a(I175
I356
tp179
a(I176
I357
tp180
a(I177
I358
tp181
a(I178
I359
tp182
a(I179
I368
tp183
a(I180
I369
tp184
a(I181
I370
tp185
a(I182
I371
tp186
a(I183
I372
tp187
a(I184
I373
tp188
a(I185
I374
tp189
a(I186
I375
tp190
a(I187
I376
tp191
a(I188
I377
tp192
a(I189
I378
tp193
a(I190
I379
tp194
a(I191
I380
tp195
a(I192
I382
tp196
a(I193
I383
tp197
a(I194
I384
tp198
a(I195
I385
tp199
a(I196
I386
tp200
a(I197
I387
tp201
a(I198
I388
tp202
a(I199
I389
tp203
a(I200
I398
tp204
a(I201
I399
tp205
a(I202
I401
tp206
a(I203
I402
tp207
a(I204
I403
tp208
a(I205
I404
tp209
a(I206
I406
tp210
a(I207
I407
tp211
a(I208
I408
tp212
a(I209
I409
tp213
a(I210
I410
tp214
a(I211
I411
tp215
a(I212
I412
tp216
a(I213
I414
tp217
a(I214
I415
tp218
a(I215
I416
tp219
a(I216
I417
tp220
a(I217
I425
tp221
a(I218
I426
tp222
a(I219
I427
tp223
a(I220
I428
tp224
a(I221
I429
tp225
a(I222
I430
tp226
a(I223
I431
tp227
a(I224
I432
tp228
a(I225
I433
tp229
a(I226
I434
tp230
a(I227
I435
tp231
a(I228
I436
tp232
a(I229
I437
tp233
a(I230
I438
tp234
a(I231
I439
tp235
a(I232
I440
tp236
a(I233
I441
tp237
a(I234
I442
tp238
a(I235
I443
tp239
a(I236
I444
tp240
a(I237
I453
tp241
a(I238
I456
tp242
a(I239
I457
tp243
a(I240
I458
tp244
a(I241
I459
tp245
a(I242
I460
tp246
a(I243
I461
tp247
a(I244
I462
tp248
a(I245
I463
tp249
a(I246
I464
tp250
a(I247
I465
tp251
a(I248
I466
tp252
a(I249
I467
tp253
a(I250
I468
tp254
a(I251
I470
tp255
a(I252
I472
tp256
a(I253
I481
tp257
a(I254
I482
tp258
a(I255
I483
tp259
a(I256
I484
tp260
a(I257
I485
tp261
a(I258
I486
tp262
a(I259
I487
tp263
a(I260
I488
tp264
a(I261
I489
tp265
a(I262
I490
tp266
a(I263
I491
tp267
a(I264
I492
tp268
a(I265
I493
tp269
a(I266
I494
tp270
a(I267
I495
tp271
a(I268
I496
tp272
a(I269
I497
tp273
a(I270
I498
tp274
a(I271
I500
tp275
a(I272
I507
tp276
a(I273
I508
tp277
a(I274
I509
tp278
a(I275
I510
tp279
a(I276
I511
tp280
a(I277
I512
tp281
a(I278
I513
tp282
a(I279
I515
tp283
a(I280
I516
tp284
a(I281
I517
tp285
a(I282
I518
tp286
a(I283
I520
tp287
a(I284
I521
tp288
a(I285
I523
tp289
a(I286
I525
tp290
a(I287
I526
tp291
a(I288
I527
tp292
a(I289
I528
tp293
a(I290
I536
tp294
a(I291
I537
tp295
a(I292
I538
tp296
a(I293
I539
tp297
a(I294
I540
tp298
a(I295
I541
tp299
a(I296
I543
tp300
a(I297
I544
tp301
a(I298
I545
tp302
a(I299
I546
tp303
a(I300
I547
tp304
a(I301
I549
tp305
a(I302
I550
tp306
a(I303
I552
tp307
a(I304
I554
tp308
a(I305
I555
tp309
a(I306
I556
tp310
a(I307
I564
tp311
a(I308
I565
tp312
a(I309
I566
tp313
a(I310
I568
tp314
a(I311
I569
tp315
a(I312
I570
tp316
a(I313
I571
tp317
a(I314
I572
tp318
a(I315
I573
tp319
a(I316
I574
tp320
a(I317
I575
tp321
a(I318
I577
tp322
a(I319
I579
tp323
a(I320
I580
tp324
a(I321
I581
tp325
a(I322
I583
tp326
a(I323
I594
tp327
a(I324
I595
tp328
a(I325
I596
tp329
a(I326
I597
tp330
a(I327
I598
tp331
a(I328
I600
tp332
a(I329
I601
tp333
a(I330
I602
tp334
a(I331
I603
tp335
a(I332
I604
tp336
a(I333
I605
tp337
a(I334
I606
tp338
a(I335
I607
tp339
a(I336
I608
tp340
a(I337
I620
tp341
a(I338
I621
tp342
a(I339
I622
tp343
a(I340
I624
tp344
a(I341
I625
tp345
a(I342
I626
tp346
a(I343
I627
tp347
a(I344
I629
tp348
a(I345
I630
tp349
a(I346
I631
tp350
a(I347
I632
tp351
a(I348
I633
tp352
a(I349
I634
tp353
a(I350
I635
tp354
a(I351
I636
tp355
a(I352
I638
tp356
a(I353
I650
tp357
a(I354
I651
tp358
a(I355
I653
tp359
a(I356
I654
tp360
a(I357
I656
tp361
a(I358
I657
tp362
a(I359
I658
tp363
a(I360
I659
tp364
a(I361
I661
tp365
a(I362
I662
tp366
a(I363
I663
tp367
a(I364
I665
tp368
a(I365
I666
tp369
a(I366
I677
tp370
a(I367
I680
tp371
a(I368
I681
tp372
a(I369
I682
tp373
a(I370
I684
tp374
a(I371
I685
tp375
a(I372
I686
tp376
a(I373
I687
tp377
a(I374
I690
tp378
a(I375
I691
tp379
a(I376
I693
tp380
a(I377
I694
tp381
a(I378
I707
tp382
a(I379
I708
tp383
a(I380
I709
tp384
a(I381
I710
tp385
a(I382
I711
tp386
a(I383
I713
tp387
a(I384
I714
tp388
a(I385
I718
tp389
a(I386
I719
tp390
a(I387
I737
tp391
a(I388
I738
tp392
a(I389
I740
tp393
a(I390
I741
tp394
a(I391
I742
tp395
a(I392
I743
tp396
a(I393
I744
tp397
a(I394
I745
tp398
a(I395
I746
tp399
aI941
tp400
a((lp401
I410
aI20
aI10
a(lp402
(I0
I70
tp403
a(I1
I94
tp404
a(I2
I95
tp405
a(I3
I96
tp406
a(I4
I97
tp407
a(I5
I98
tp408
a(I6
I99
tp409
a(I7
I100
tp410
a(I8
I101
tp411
a(I9
I102
tp412
a(I10
I103
tp413
a(I11
I104
tp414
a(I12
I120
tp415
a(I13
I121
tp416
a(I14
I122
tp417
a(I15
I123
tp418
a(I16
I124
tp419
a(I17
I125
tp420
a(I18
I126
tp421
a(I19
I127
tp422
a(I20
I128
tp423
a(I21
I129
tp424
a(I22
I131
tp425
a(I23
I132
tp426
a(I24
I145
tp427
a(I25
I148
tp428
a(I26
I149
tp429
a(I27
I150
tp430
a(I28
I152
tp431
a(I29
I153
tp432
a(I30
I154
tp433
a(I31
I155
tp434
a(I32
I156
tp435
a(I33
I157
tp436
a(I34
I158
tp437
a(I35
I159
tp438
a(I36
I160
tp439
a(I37
I161
tp440
a(I38
I162
tp441
a(I39
I163
tp442
a(I40
I164
tp443
a(I41
I174
tp444
a(I42
I175
tp445
a(I43
I176
tp446
a(I44
I177
tp447
a(I45
I178
tp448
a(I46
I179
tp449
a(I47
I180
tp450
a(I48
I181
tp451
a(I49
I182
tp452
a(I50
I183
tp453
a(I51
I184
tp454
a(I52
I185
tp455
a(I53
I186
tp456
a(I54
I187
tp457
a(I55
I188
tp458
a(I56
I191
tp459
a(I57
I192
tp460
a(I58
I199
tp461
a(I59
I200
tp462
a(I60
I201
tp463
a(I61
I204
tp464
a(I62
I205
tp465
a(I63
I206
tp466
a(I64
I207
tp467
a(I65
I208
tp468
a(I66
I209
tp469
a(I67
I210
tp470
a(I68
I211
tp471
a(I69
I212
tp472
a(I70
I213
tp473
a(I71
I214
tp474
a(I72
I215
tp475
a(I73
I216
tp476
a(I74
I217
tp477
a(I75
I219
tp478
a(I76
I220
tp479
a(I77
I228
tp480
a(I78
I229
tp481
a(I79
I230
tp482
a(I80
I231
tp483
a(I81
I232
tp484
a(I82
I233
tp485
a(I83
I234
tp486
a(I84
I235
tp487
a(I85
I236
tp488
a(I86
I237
tp489
a(I87
I238
tp490
a(I88
I239
tp491
a(I89
I240
tp492
a(I90
I241
tp493
a(I91
I242
tp494
a(I92
I243
tp495
a(I93
I245
tp496
a(I94
I246
tp497
a(I95
I247
tp498
a(I96
I248
tp499
a(I97
I249
tp500
a(I98
I256
tp501
a(I99
I257
tp502
a(I100
I258
tp503
a(I101
I259
tp504
a(I102
I260
tp505
a(I103
I261
tp506
a(I104
I263
tp507
a(I105
I264
tp508
a(I106
I265
tp509
a(I107
I266
tp510
a(I108
I267
tp511
a(I109
I268
tp512
a(I110
I269
tp513
a(I111
I270
tp514
a(I112
I271
tp515
a(I113
I273
tp516
a(I114
I274
tp517
a(I115
I275
tp518
a(I116
I276
tp519
a(I117
I277
tp520
a(I118
I284
tp521
a(I119
I289
tp522
a(I120
I290
tp523
a(I121
I291
tp524
a(I122
I292
tp525
a(I123
I293
tp526
a(I124
I294
tp527
a(I125
I295
tp528
a(I126
I296
tp529
a(I127
I297
tp530
a(I128
I298
tp531
a(I129
I299
tp532
a(I130
I301
tp533
a(I131
I302
tp534
a(I132
I303
tp535
a(I133
I304
tp536
a(I134
I305
tp537
a(I135
I311
tp538
a(I136
I312
tp539
a(I137
I313
tp540
a(I138
I314
tp541
a(I139
I315
tp542
a(I140
I316
tp543
a(I141
I317
tp544
a(I142
I318
tp545
a(I143
I319
tp546
a(I144
I320
tp547
a(I145
I321
tp548
a(I146
I322
tp549
a(I147
I323
tp550
a(I148
I325
tp551
a(I149
I326
tp552
a(I150
I327
tp553
a(I151
I328
tp554
a(I152
I329
tp555
a(I153
I330
tp556
a(I154
I331
tp557
a(I155
I332
tp558
a(I156
I333
tp559
a(I157
I340
tp560
a(I158
I341
tp561
a(I159
I342
tp562
a(I160
I343
tp563
a(I161
I344
tp564
a(I162
I345
tp565
a(I163
I346
tp566
a(I164
I347
tp567
a(I165
I348
tp568
a(I166
I349
tp569
a(I167
I350
tp570
a(I168
I351
tp571
a(I169
I352
tp572
a(I170
I353
tp573
a(I171
I354
tp574
a(I172
I355
tp575
a(I173
I356
tp576
a(I174
I357
tp577
a(I175
I358
tp578
a(I176
I359
tp579
a(I177
I360
tp580
a(I178
I368
tp581
a(I179
I369
tp582
a(I180
I370
tp583
a(I181
I372
tp584
a(I182
I373
tp585
a(I183
I374
tp586
a(I184
I375
tp587
a(I185
I376
tp588
a(I186
I377
tp589
a(I187
I378
tp590
a(I188
I379
tp591
a(I189
I380
tp592
a(I190
I381
tp593
a(I191
I382
tp594
a(I192
I383
tp595
a(I193
I384
tp596
a(I194
I385
tp597
a(I195
I386
tp598
a(I196
I387
tp599
a(I197
I388
tp600
a(I198
I396
tp601
a(I199
I397
tp602
a(I200
I398
tp603
a(I201
I399
tp604
a(I202
I400
tp605
a(I203
I401
tp606
a(I204
I402
tp607
a(I205
I403
tp608
a(I206
I404
tp609
a(I207
I405
tp610
a(I208
I406
tp611
a(I209
I407
tp612
a(I210
I408
tp613
a(I211
I409
tp614
a(I212
I410
tp615
a(I213
I411
tp616
a(I214
I412
tp617
a(I215
I413
tp618
a(I216
I414
tp619
a(I217
I415
tp620
a(I218
I416
tp621
a(I219
I425
tp622
a(I220
I426
tp623
a(I221
I427
tp624
a(I222
I428
tp625
a(I223
I429
tp626
a(I224
I430
tp627
a(I225
I432
tp628
a(I226
I433
tp629
a(I227
I434
tp630
a(I228
I435
tp631
a(I229
I436
tp632
a(I230
I437
tp633
a(I231
I438
tp634
a(I232
I439
tp635
a(I233
I440
tp636
a(I234
I441
tp637
a(I235
I442
tp638
a(I236
I444
tp639
a(I237
I453
tp640
a(I238
I454
tp641
a(I239
I455
tp642
a(I240
I456
tp643
a(I241
I457
tp644
a(I242
I459
tp645
a(I243
I460
tp646
a(I244
I461
tp647
a(I245
I462
tp648
a(I246
I463
tp649
a(I247
I464
tp650
a(I248
I465
tp651
a(I249
I466
tp652
a(I250
I467
tp653
a(I251
I468
tp654
a(I252
I470
tp655
a(I253
I471
tp656
a(I254
I472
tp657
a(I255
I479
tp658
a(I256
I481
tp659
a(I257
I482
tp660
a(I258
I483
tp661
a(I259
I484
tp662
a(I260
I485
tp663
a(I261
I486
tp664
a(I262
I487
tp665
a(I263
I488
tp666
a(I264
I489
tp667
a(I265
I490
tp668
a(I266
I491
tp669
a(I267
I492
tp670
a(I268
I493
tp671
a(I269
I495
tp672
a(I270
I496
tp673
a(I271
I497
tp674
a(I272
I498
tp675
a(I273
I500
tp676
a(I274
I508
tp677
a(I275
I509
tp678
a(I276
I510
tp679
a(I277
I511
tp680
a(I278
I512
tp681
a(I279
I513
tp682
a(I280
I514
tp683
a(I281
I515
tp684
a(I282
I516
tp685
a(I283
I517
tp686
a(I284
I518
tp687
a(I285
I519
tp688
a(I286
I520
tp689
a(I287
I521
tp690
a(I288
I522
tp691
a(I289
I523
tp692
a(I290
I524
tp693
a(I291
I526
tp694
a(I292
I527
tp695
a(I293
I528
tp696
a(I294
I536
tp697
a(I295
I537
tp698
a(I296
I538
tp699
a(I297
I539
tp700
a(I298
I540
tp701
a(I299
I541
tp702
a(I300
I542
tp703
a(I301
I543
tp704
a(I302
I544
tp705
a(I303
I545
tp706
a(I304
I546
tp707
a(I305
I547
tp708
a(I306
I548
tp709
a(I307
I549
tp710
a(I308
I550
tp711
a(I309
I552
tp712
a(I310
I553
tp713
a(I311
I554
tp714
a(I312
I555
tp715
a(I313
I556
tp716
a(I314
I563
tp717
a(I315
I564
tp718
a(I316
I565
tp719
a(I317
I566
tp720
a(I318
I568
tp721
a(I319
I569
tp722
a(I320
I570
tp723
a(I321
I571
tp724
a(I322
I572
tp725
a(I323
I573
tp726
a(I324
I574
tp727
a(I325
I575
tp728
a(I326
I576
tp729
a(I327
I577
tp730
a(I328
I578
tp731
a(I329
I579
tp732
a(I330
I580
tp733
a(I331
I581
tp734
a(I332
I582
tp735
a(I333
I591
tp736
a(I334
I592
tp737
a(I335
I593
tp738
a(I336
I594
tp739
a(I337
I595
tp740
a(I338
I596
tp741
a(I339
I597
tp742
a(I340
I598
tp743
a(I341
I599
tp744
a(I342
I600
tp745
a(I343
I601
tp746
a(I344
I602
tp747
a(I345
I603
tp748
a(I346
I604
tp749
a(I347
I605
tp750
a(I348
I606
tp751
a(I349
I607
tp752
a(I350
I608
tp753
a(I351
I610
tp754
a(I352
I620
tp755
a(I353
I621
tp756
a(I354
I624
tp757
a(I355
I626
tp758
a(I356
I627
tp759
a(I357
I628
tp760
a(I358
I629
tp761
a(I359
I631
tp762
a(I360
I632
tp763
a(I361
I633
tp764
a(I362
I634
tp765
a(I363
I635
tp766
a(I364
I638
tp767
a(I365
I639
tp768
a(I366
I649
tp769
a(I367
I650
tp770
a(I368
I651
tp771
a(I369
I654
tp772
a(I370
I655
tp773
a(I371
I656
tp774
a(I372
I659
tp775
a(I373
I660
tp776
a(I374
I662
tp777
a(I375
I663
tp778
a(I376
I664
tp779
a(I377
I665
tp780
a(I378
I679
tp781
a(I379
I680
tp782
a(I380
I681
tp783
a(I381
I682
tp784
a(I382
I683
tp785
a(I383
I684
tp786
a(I384
I685
tp787
a(I385
I686
tp788
a(I386
I687
tp789
a(I387
I688
tp790
a(I388
I690
tp791
a(I389
I691
tp792
a(I390
I705
tp793
a(I391
I707
tp794
a(I392
I708
tp795
a(I393
I709
tp796
a(I394
I710
tp797
a(I395
I712
tp798
a(I396
I713
tp799
a(I397
I714
tp800
a(I398
I715
tp801
a(I399
I716
tp802
a(I400
I717
tp803
a(I401
I718
tp804
a(I402
I719
tp805
a(I403
I741
tp806
a(I404
I742
tp807
a(I405
I743
tp808
a(I406
I744
tp809
a(I407
I745
tp810
a(I408
I746
tp811
a(I409
I747
tp812
aI1078
tp813
a((lp814
I366
aI20
aI10
a(lp815
(I0
I93
tp816
a(I1
I94
tp817
a(I2
I95
tp818
a(I3
I97
tp819
a(I4
I98
tp820
a(I5
I99
tp821
a(I6
I101
tp822
a(I7
I102
tp823
a(I8
I105
tp824
a(I9
I120
tp825
a(I10
I121
tp826
a(I11
I123
tp827
a(I12
I124
tp828
a(I13
I126
tp829
a(I14
I127
tp830
a(I15
I129
tp831
a(I16
I130
tp832
a(I17
I131
tp833
a(I18
I133
tp834
a(I19
I134
tp835
a(I20
I136
tp836
a(I21
I146
tp837
a(I22
I148
tp838
a(I23
I150
tp839
a(I24
I151
tp840
a(I25
I153
tp841
a(I26
I154
tp842
a(I27
I155
tp843
a(I28
I156
tp844
a(I29
I157
tp845
a(I30
I158
tp846
a(I31
I159
tp847
a(I32
I160
tp848
a(I33
I161
tp849
a(I34
I162
tp850
a(I35
I173
tp851
a(I36
I174
tp852
a(I37
I176
tp853
a(I38
I178
tp854
a(I39
I179
tp855
a(I40
I181
tp856
a(I41
I182
tp857
a(I42
I183
tp858
a(I43
I184
tp859
a(I44
I185
tp860
a(I45
I187
tp861
a(I46
I188
tp862
a(I47
I190
tp863
a(I48
I191
tp864
a(I49
I192
tp865
a(I50
I200
tp866
a(I51
I201
tp867
a(I52
I202
tp868
a(I53
I203
tp869
a(I54
I206
tp870
a(I55
I207
tp871
a(I56
I208
tp872
a(I57
I209
tp873
a(I58
I210
tp874
a(I59
I211
tp875
a(I60
I212
tp876
a(I61
I214
tp877
a(I62
I216
tp878
a(I63
I217
tp879
a(I64
I218
tp880
a(I65
I219
tp881
a(I66
I220
tp882
a(I67
I228
tp883
a(I68
I229
tp884
a(I69
I230
tp885
a(I70
I231
tp886
a(I71
I232
tp887
a(I72
I233
tp888
a(I73
I234
tp889
a(I74
I235
tp890
a(I75
I237
tp891
a(I76
I238
tp892
a(I77
I240
tp893
a(I78
I241
tp894
a(I79
I242
tp895
a(I80
I243
tp896
a(I81
I244
tp897
a(I82
I245
tp898
a(I83
I246
tp899
a(I84
I247
tp900
a(I85
I248
tp901
a(I86
I249
tp902
a(I87
I256
tp903
a(I88
I257
tp904
a(I89
I259
tp905
a(I90
I261
tp906
a(I91
I263
tp907
a(I92
I265
tp908
a(I93
I266
tp909
a(I94
I267
tp910
a(I95
I268
tp911
a(I96
I269
tp912
a(I97
I270
tp913
a(I98
I271
tp914
a(I99
I272
tp915
a(I100
I273
tp916
a(I101
I274
tp917
a(I102
I275
tp918
a(I103
I276
tp919
a(I104
I277
tp920
a(I105
I284
tp921
a(I106
I285
tp922
a(I108
I290
tp923
a(I109
I291
tp924
a(I110
I293
tp925
a(I111
I294
tp926
a(I112
I295
tp927
a(I113
I297
tp928
a(I114
I298
tp929
a(I115
I299
tp930
a(I116
I300
tp931
a(I117
I301
tp932
a(I118
I302
tp933
a(I119
I303
tp934
a(I120
I304
tp935
a(I121
I305
tp936
a(I122
I313
tp937
a(I123
I314
tp938
a(I124
I316
tp939
a(I125
I317
tp940
a(I126
I318
tp941
a(I127
I319
tp942
a(I128
I320
tp943
a(I129
I321
tp944
a(I130
I322
tp945
a(I131
I323
tp946
a(I132
I324
tp947
a(I133
I325
tp948
a(I134
I326
tp949
a(I135
I327
tp950
a(I136
I328
tp951
a(I137
I329
tp952
a(I138
I330
tp953
a(I139
I331
tp954
a(I140
I333
tp955
a(I141
I341
tp956
a(I142
I342
tp957
a(I143
I343
tp958
a(I144
I344
tp959
a(I145
I345
tp960
a(I146
I346
tp961
a(I147
I347
tp962
a(I148
I348
tp963
a(I149
I349
tp964
a(I150
I350
tp965
a(I151
I351
tp966
a(I152
I352
tp967
a(I153
I353
tp968
a(I154
I354
tp969
a(I155
I355
tp970
a(I156
I356
tp971
a(I157
I357
tp972
a(I158
I358
tp973
a(I159
I359
tp974
a(I160
I361
tp975
a(I161
I369
tp976
a(I162
I370
tp977
a(I163
I371
tp978
a(I164
I372
tp979
a(I165
I373
tp980
a(I166
I374
tp981
a(I167
I375
tp982
a(I168
I376
tp983
a(I169
I377
tp984
a(I170
I379
tp985
a(I171
I380
tp986
a(I172
I384
tp987
a(I173
I386
tp988
a(I174
I387
tp989
a(I175
I389
tp990
a(I176
I397
tp991
a(I177
I398
tp992
a(I178
I399
tp993
a(I179
I400
tp994
a(I180
I401
tp995
a(I181
I402
tp996
a(I182
I403
tp997
a(I183
I404
tp998
a(I184
I405
tp999
a(I185
I406
tp1000
a(I186
I407
tp1001
a(I187
I408
tp1002
a(I188
I409
tp1003
a(I189
I410
tp1004
a(I190
I412
tp1005
a(I191
I413
tp1006
a(I192
I414
tp1007
a(I193
I415
tp1008
a(I194
I426
tp1009
a(I195
I427
tp1010
a(I196
I428
tp1011
a(I197
I429
tp1012
a(I198
I431
tp1013
a(I199
I432
tp1014
a(I200
I433
tp1015
a(I201
I434
tp1016
a(I202
I436
tp1017
a(I203
I437
tp1018
a(I204
I438
tp1019
a(I205
I440
tp1020
a(I206
I441
tp1021
a(I207
I442
tp1022
a(I208
I454
tp1023
a(I209
I455
tp1024
a(I210
I456
tp1025
a(I211
I457
tp1026
a(I212
I458
tp1027
a(I213
I459
tp1028
a(I214
I460
tp1029
a(I215
I461
tp1030
a(I216
I462
tp1031
a(I217
I463
tp1032
a(I218
I464
tp1033
a(I219
I466
tp1034
a(I220
I467
tp1035
a(I221
I469
tp1036
a(I222
I470
tp1037
a(I223
I471
tp1038
a(I224
I472
tp1039
a(I225
I482
tp1040
a(I226
I483
tp1041
a(I227
I484
tp1042
a(I228
I485
tp1043
a(I229
I486
tp1044
a(I230
I487
tp1045
a(I231
I488
tp1046
a(I232
I489
tp1047
a(I233
I490
tp1048
a(I234
I491
tp1049
a(I235
I492
tp1050
a(I236
I493
tp1051
a(I237
I494
tp1052
a(I238
I495
tp1053
a(I239
I496
tp1054
a(I240
I497
tp1055
a(I241
I498
tp1056
a(I242
I499
tp1057
a(I243
I500
tp1058
a(I244
I508
tp1059
a(I245
I510
tp1060
a(I246
I511
tp1061
a(I247
I512
tp1062
a(I248
I513
tp1063
a(I249
I514
tp1064
a(I250
I515
tp1065
a(I251
I516
tp1066
a(I252
I517
tp1067
a(I253
I518
tp1068
a(I254
I519
tp1069
a(I255
I520
tp1070
a(I256
I521
tp1071
a(I257
I525
tp1072
a(I258
I526
tp1073
a(I259
I527
tp1074
a(I260
I528
tp1075
a(I261
I536
tp1076
a(I262
I537
tp1077
a(I263
I539
tp1078
a(I264
I540
tp1079
a(I265
I541
tp1080
a(I266
I542
tp1081
a(I267
I543
tp1082
a(I268
I544
tp1083
a(I269
I545
tp1084
a(I270
I546
tp1085
a(I271
I547
tp1086
a(I272
I548
tp1087
a(I273
I549
tp1088
a(I274
I550
tp1089
a(I275
I551
tp1090
a(I276
I553
tp1091
a(I277
I554
tp1092
a(I278
I555
tp1093
a(I279
I556
tp1094
a(I280
I565
tp1095
a(I281
I567
tp1096
a(I282
I568
tp1097
a(I283
I569
tp1098
a(I285
I571
tp1099
a(I286
I572
tp1100
a(I287
I574
tp1101
a(I288
I575
tp1102
a(I289
I576
tp1103
a(I290
I577
tp1104
a(I291
I578
tp1105
a(I292
I579
tp1106
a(I293
I580
tp1107
a(I294
I581
tp1108
a(I295
I582
tp1109
a(I296
I583
tp1110
a(I297
I592
tp1111
a(I298
I593
tp1112
a(I299
I594
tp1113
a(I300
I595
tp1114
a(I301
I596
tp1115
a(I302
I598
tp1116
a(I303
I599
tp1117
a(I304
I600
tp1118
a(I305
I601
tp1119
a(I306
I602
tp1120
a(I307
I604
tp1121
a(I308
I606
tp1122
a(I309
I607
tp1123
a(I310
I608
tp1124
a(I311
I609
tp1125
a(I312
I610
tp1126
a(I313
I611
tp1127
a(I314
I620
tp1128
a(I315
I621
tp1129
a(I316
I622
tp1130
a(I317
I623
tp1131
a(I318
I624
tp1132
a(I319
I626
tp1133
a(I320
I628
tp1134
a(I321
I629
tp1135
a(I322
I631
tp1136
a(I323
I633
tp1137
a(I324
I634
tp1138
a(I325
I635
tp1139
a(I326
I638
tp1140
a(I327
I650
tp1141
a(I328
I651
tp1142
a(I329
I655
tp1143
a(I330
I657
tp1144
a(I331
I658
tp1145
a(I332
I659
tp1146
a(I333
I660
tp1147
a(I334
I663
tp1148
a(I335
I665
tp1149
a(I336
I677
tp1150
a(I337
I678
tp1151
a(I338
I679
tp1152
a(I339
I680
tp1153
a(I340
I681
tp1154
a(I341
I682
tp1155
a(I342
I683
tp1156
a(I343
I685
tp1157
a(I344
I686
tp1158
a(I345
I687
tp1159
a(I346
I688
tp1160
a(I347
I690
tp1161
a(I348
I691
tp1162
a(I349
I692
tp1163
a(I350
I694
tp1164
a(I351
I708
tp1165
a(I352
I709
tp1166
a(I353
I710
tp1167
a(I354
I711
tp1168
a(I355
I712
tp1169
a(I356
I713
tp1170
a(I357
I714
tp1171
a(I358
I716
tp1172
a(I359
I717
tp1173
a(I360
I718
tp1174
a(I361
I720
tp1175
a(I362
I737
tp1176
a(I363
I738
tp1177
a(I364
I739
tp1178
a(I365
I742
tp1179
a(I366
I745
tp1180
a(I367
I746
tp1181
aI902
tp1182
a((lp1183
I375
aI19
aI10
a(lp1184
(I0
I73
tp1185
a(I1
I74
tp1186
a(I2
I75
tp1187
a(I3
I94
tp1188
a(I4
I95
tp1189
a(I5
I96
tp1190
a(I6
I97
tp1191
a(I7
I98
tp1192
a(I8
I99
tp1193
a(I9
I100
tp1194
a(I10
I101
tp1195
a(I11
I102
tp1196
a(I12
I103
tp1197
a(I13
I123
tp1198
a(I14
I124
tp1199
a(I15
I125
tp1200
a(I16
I126
tp1201
a(I17
I127
tp1202
a(I18
I128
tp1203
a(I19
I129
tp1204
a(I20
I130
tp1205
a(I21
I131
tp1206
a(I22
I133
tp1207
a(I23
I147
tp1208
a(I24
I148
tp1209
a(I25
I150
tp1210
a(I26
I151
tp1211
a(I27
I152
tp1212
a(I28
I153
tp1213
a(I29
I154
tp1214
a(I30
I155
tp1215
a(I31
I156
tp1216
a(I32
I157
tp1217
a(I33
I158
tp1218
a(I34
I159
tp1219
a(I35
I161
tp1220
a(I36
I162
tp1221
a(I37
I174
tp1222
a(I38
I175
tp1223
a(I39
I176
tp1224
a(I40
I179
tp1225
a(I41
I180
tp1226
a(I42
I182
tp1227
a(I43
I183
tp1228
a(I44
I184
tp1229
a(I45
I185
tp1230
a(I46
I188
tp1231
a(I47
I189
tp1232
a(I48
I191
tp1233
a(I49
I201
tp1234
a(I50
I202
tp1235
a(I51
I203
tp1236
a(I52
I204
tp1237
a(I53
I206
tp1238
a(I54
I207
tp1239
a(I55
I208
tp1240
a(I56
I209
tp1241
a(I57
I210
tp1242
a(I58
I211
tp1243
a(I59
I212
tp1244
a(I60
I213
tp1245
a(I61
I214
tp1246
a(I62
I215
tp1247
a(I63
I216
tp1248
a(I64
I217
tp1249
a(I65
I219
tp1250
a(I66
I220
tp1251
a(I67
I228
tp1252
a(I68
I231
tp1253
a(I69
I232
tp1254
a(I70
I233
tp1255
a(I71
I234
tp1256
a(I72
I236
tp1257
a(I73
I237
tp1258
a(I74
I238
tp1259
a(I75
I239
tp1260
a(I76
I240
tp1261
a(I77
I241
tp1262
a(I78
I242
tp1263
a(I79
I243
tp1264
a(I80
I244
tp1265
a(I81
I245
tp1266
a(I82
I246
tp1267
a(I83
I247
tp1268
a(I84
I248
tp1269
a(I85
I249
tp1270
a(I86
I256
tp1271
a(I87
I259
tp1272
a(I88
I260
tp1273
a(I89
I261
tp1274
a(I90
I262
tp1275
a(I91
I264
tp1276
a(I93
I266
tp1277
a(I94
I267
tp1278
a(I95
I268
tp1279
a(I96
I269
tp1280
a(I97
I270
tp1281
a(I98
I271
tp1282
a(I99
I272
tp1283
a(I100
I273
tp1284
a(I101
I274
tp1285
a(I102
I275
tp1286
a(I103
I276
tp1287
a(I104
I288
tp1288
a(I105
I289
tp1289
a(I106
I290
tp1290
a(I107
I291
tp1291
a(I108
I293
tp1292
a(I109
I294
tp1293
a(I110
I295
tp1294
a(I111
I296
tp1295
a(I112
I297
tp1296
a(I113
I298
tp1297
a(I114
I299
tp1298
a(I115
I300
tp1299
a(I116
I301
tp1300
a(I117
I302
tp1301
a(I118
I303
tp1302
a(I119
I304
tp1303
a(I120
I314
tp1304
a(I121
I315
tp1305
a(I122
I316
tp1306
a(I123
I317
tp1307
a(I124
I318
tp1308
a(I125
I319
tp1309
a(I126
I320
tp1310
a(I127
I321
tp1311
a(I128
I322
tp1312
a(I129
I323
tp1313
a(I130
I324
tp1314
a(I131
I325
tp1315
a(I132
I326
tp1316
a(I133
I327
tp1317
a(I134
I328
tp1318
a(I135
I330
tp1319
a(I136
I331
tp1320
a(I137
I332
tp1321
a(I138
I340
tp1322
a(I139
I341
tp1323
a(I140
I342
tp1324
a(I141
I343
tp1325
a(I142
I344
tp1326
a(I143
I345
tp1327
a(I144
I346
tp1328
a(I145
I347
tp1329
a(I146
I348
tp1330
a(I147
I349
tp1331
a(I148
I350
tp1332
a(I149
I351
tp1333
a(I150
I352
tp1334
a(I151
I353
tp1335
a(I152
I354
tp1336
a(I153
I355
tp1337
a(I154
I356
tp1338
a(I155
I357
tp1339
a(I156
I358
tp1340
a(I157
I359
tp1341
a(I158
I368
tp1342
a(I159
I369
tp1343
a(I160
I370
tp1344
a(I161
I371
tp1345
a(I162
I372
tp1346
a(I163
I374
tp1347
a(I164
I375
tp1348
a(I165
I376
tp1349
a(I166
I377
tp1350
a(I167
I378
tp1351
a(I168
I379
tp1352
a(I169
I380
tp1353
a(I170
I381
tp1354
a(I171
I382
tp1355
a(I172
I383
tp1356
a(I173
I384
tp1357
a(I174
I385
tp1358
a(I175
I386
tp1359
a(I176
I387
tp1360
a(I177
I396
tp1361
a(I178
I397
tp1362
a(I179
I398
tp1363
a(I180
I399
tp1364
a(I181
I401
tp1365
a(I182
I402
tp1366
a(I183
I404
tp1367
a(I184
I405
tp1368
a(I185
I406
tp1369
a(I186
I407
tp1370
a(I187
I408
tp1371
a(I188
I409
tp1372
a(I189
I410
tp1373
a(I190
I411
tp1374
a(I191
I412
tp1375
a(I192
I413
tp1376
a(I193
I414
tp1377
a(I194
I415
tp1378
a(I195
I425
tp1379
a(I196
I426
tp1380
a(I197
I427
tp1381
a(I198
I428
tp1382
a(I199
I429
tp1383
a(I200
I431
tp1384
a(I201
I432
tp1385
a(I202
I433
tp1386
a(I203
I434
tp1387
a(I204
I435
tp1388
a(I205
I436
tp1389
a(I206
I437
tp1390
a(I207
I438
tp1391
a(I208
I439
tp1392
a(I209
I440
tp1393
a(I210
I441
tp1394
a(I211
I442
tp1395
a(I212
I443
tp1396
a(I213
I453
tp1397
a(I214
I454
tp1398
a(I215
I456
tp1399
a(I216
I459
tp1400
a(I217
I460
tp1401
a(I218
I461
tp1402
a(I219
I462
tp1403
a(I220
I463
tp1404
a(I221
I464
tp1405
a(I222
I466
tp1406
a(I223
I467
tp1407
a(I224
I469
tp1408
a(I225
I470
tp1409
a(I226
I471
tp1410
a(I227
I472
tp1411
a(I228
I479
tp1412
a(I229
I480
tp1413
a(I230
I481
tp1414
a(I231
I482
tp1415
a(I232
I483
tp1416
a(I233
I484
tp1417
a(I234
I485
tp1418
a(I235
I486
tp1419
a(I236
I487
tp1420
a(I237
I488
tp1421
a(I238
I489
tp1422
a(I239
I490
tp1423
a(I240
I491
tp1424
a(I241
I493
tp1425
a(I242
I494
tp1426
a(I243
I495
tp1427
a(I244
I496
tp1428
a(I245
I497
tp1429
a(I246
I498
tp1430
a(I247
I500
tp1431
a(I248
I508
tp1432
a(I249
I510
tp1433
a(I250
I511
tp1434
a(I251
I512
tp1435
a(I252
I513
tp1436
a(I253
I514
tp1437
a(I254
I515
tp1438
a(I255
I516
tp1439
a(I256
I517
tp1440
a(I257
I518
tp1441
a(I258
I519
tp1442
a(I259
I520
tp1443
a(I260
I521
tp1444
a(I261
I524
tp1445
a(I262
I526
tp1446
a(I263
I527
tp1447
a(I264
I528
tp1448
a(I265
I536
tp1449
a(I266
I538
tp1450
a(I267
I539
tp1451
a(I268
I540
tp1452
a(I269
I541
tp1453
a(I270
I543
tp1454
a(I271
I544
tp1455
a(I272
I545
tp1456
a(I273
I547
tp1457
a(I274
I548
tp1458
a(I275
I550
tp1459
a(I276
I551
tp1460
a(I277
I552
tp1461
a(I278
I553
tp1462
a(I279
I554
tp1463
a(I280
I555
tp1464
a(I281
I556
tp1465
a(I282
I563
tp1466
a(I283
I564
tp1467
a(I284
I565
tp1468
a(I286
I567
tp1469
a(I287
I568
tp1470
a(I288
I569
tp1471
a(I289
I570
tp1472
a(I290
I571
tp1473
a(I291
I572
tp1474
a(I292
I573
tp1475
a(I293
I574
tp1476
a(I294
I575
tp1477
a(I295
I576
tp1478
a(I296
I577
tp1479
a(I297
I578
tp1480
a(I298
I579
tp1481
a(I299
I580
tp1482
a(I300
I581
tp1483
a(I301
I582
tp1484
a(I302
I583
tp1485
a(I303
I592
tp1486
a(I304
I593
tp1487
a(I305
I594
tp1488
a(I306
I595
tp1489
a(I307
I596
tp1490
a(I308
I597
tp1491
a(I309
I598
tp1492
a(I310
I599
tp1493
a(I311
I600
tp1494
a(I312
I602
tp1495
a(I313
I603
tp1496
a(I314
I605
tp1497
a(I315
I606
tp1498
a(I316
I607
tp1499
a(I317
I608
tp1500
a(I318
I610
tp1501
a(I319
I622
tp1502
a(I320
I623
tp1503
a(I321
I624
tp1504
a(I322
I625
tp1505
a(I323
I626
tp1506
a(I324
I627
tp1507
a(I325
I628
tp1508
a(I326
I629
tp1509
a(I327
I630
tp1510
a(I328
I631
tp1511
a(I329
I632
tp1512
a(I330
I633
tp1513
a(I331
I634
tp1514
a(I332
I637
tp1515
a(I333
I638
tp1516
a(I334
I649
tp1517
a(I335
I650
tp1518
a(I336
I651
tp1519
a(I337
I652
tp1520
a(I338
I653
tp1521
a(I339
I654
tp1522
a(I340
I655
tp1523
a(I341
I656
tp1524
a(I342
I657
tp1525
a(I343
I659
tp1526
a(I344
I661
tp1527
a(I345
I678
tp1528
a(I346
I679
tp1529
a(I347
I680
tp1530
a(I348
I681
tp1531
a(I349
I683
tp1532
a(I350
I685
tp1533
a(I351
I686
tp1534
a(I352
I687
tp1535
a(I353
I688
tp1536
a(I354
I690
tp1537
a(I355
I691
tp1538
a(I356
I692
tp1539
a(I357
I693
tp1540
a(I358
I706
tp1541
a(I359
I707
tp1542
a(I360
I708
tp1543
a(I361
I709
tp1544
a(I362
I710
tp1545
a(I363
I711
tp1546
a(I364
I712
tp1547
a(I365
I713
tp1548
a(I366
I714
tp1549
a(I367
I715
tp1550
a(I368
I717
tp1551
a(I369
I718
tp1552
a(I370
I719
tp1553
a(I371
I720
tp1554
a(I372
I737
tp1555
a(I373
I742
tp1556
a(I374
I743
tp1557
a(I375
I745
tp1558
a(I376
I746
tp1559
aI884
tp1560
a((lp1561
I389
aI19
aI10
a(lp1562
(I0
I93
tp1563
a(I1
I94
tp1564
a(I2
I97
tp1565
a(I3
I98
tp1566
a(I4
I99
tp1567
a(I5
I100
tp1568
a(I6
I101
tp1569
a(I7
I102
tp1570
a(I8
I103
tp1571
a(I9
I105
tp1572
a(I10
I120
tp1573
a(I12
I124
tp1574
a(I13
I125
tp1575
a(I14
I127
tp1576
a(I15
I128
tp1577
a(I16
I131
tp1578
a(I17
I132
tp1579
a(I18
I133
tp1580
a(I19
I134
tp1581
a(I20
I145
tp1582
a(I21
I146
tp1583
a(I22
I147
tp1584
a(I23
I148
tp1585
a(I24
I150
tp1586
a(I25
I151
tp1587
a(I26
I152
tp1588
a(I27
I153
tp1589
a(I28
I155
tp1590
a(I29
I156
tp1591
a(I30
I157
tp1592
a(I31
I158
tp1593
a(I32
I159
tp1594
a(I33
I161
tp1595
a(I34
I162
tp1596
a(I35
I176
tp1597
a(I36
I177
tp1598
a(I37
I178
tp1599
a(I38
I179
tp1600
a(I39
I180
tp1601
a(I40
I181
tp1602
a(I41
I182
tp1603
a(I42
I183
tp1604
a(I43
I184
tp1605
a(I44
I185
tp1606
a(I45
I186
tp1607
a(I46
I187
tp1608
a(I47
I188
tp1609
a(I48
I190
tp1610
a(I49
I191
tp1611
a(I50
I192
tp1612
a(I51
I193
tp1613
a(I52
I201
tp1614
a(I53
I204
tp1615
a(I54
I205
tp1616
a(I55
I206
tp1617
a(I56
I207
tp1618
a(I57
I208
tp1619
a(I58
I209
tp1620
a(I59
I210
tp1621
a(I60
I211
tp1622
a(I61
I212
tp1623
a(I62
I214
tp1624
a(I63
I215
tp1625
a(I64
I216
tp1626
a(I65
I217
tp1627
a(I66
I219
tp1628
a(I67
I220
tp1629
a(I68
I221
tp1630
a(I69
I228
tp1631
a(I70
I231
tp1632
a(I71
I232
tp1633
a(I72
I233
tp1634
a(I73
I234
tp1635
a(I74
I235
tp1636
a(I75
I236
tp1637
a(I76
I237
tp1638
a(I77
I238
tp1639
a(I78
I239
tp1640
a(I79
I240
tp1641
a(I80
I241
tp1642
a(I81
I242
tp1643
a(I82
I243
tp1644
a(I83
I244
tp1645
a(I84
I245
tp1646
a(I85
I246
tp1647
a(I86
I247
tp1648
a(I87
I248
tp1649
a(I88
I256
tp1650
a(I89
I258
tp1651
a(I90
I261
tp1652
a(I91
I262
tp1653
a(I92
I263
tp1654
a(I93
I265
tp1655
a(I94
I266
tp1656
a(I95
I267
tp1657
a(I96
I268
tp1658
a(I97
I269
tp1659
a(I98
I270
tp1660
a(I99
I271
tp1661
a(I100
I272
tp1662
a(I101
I273
tp1663
a(I102
I274
tp1664
a(I103
I275
tp1665
a(I104
I276
tp1666
a(I105
I277
tp1667
a(I106
I282
tp1668
a(I107
I283
tp1669
a(I108
I284
tp1670
a(I109
I286
tp1671
a(I110
I287
tp1672
a(I111
I288
tp1673
a(I112
I289
tp1674
a(I113
I290
tp1675
a(I114
I291
tp1676
a(I115
I292
tp1677
a(I116
I293
tp1678
a(I117
I294
tp1679
a(I118
I295
tp1680
a(I119
I296
tp1681
a(I120
I297
tp1682
a(I121
I298
tp1683
a(I122
I299
tp1684
a(I123
I300
tp1685
a(I124
I301
tp1686
a(I125
I302
tp1687
a(I126
I303
tp1688
a(I127
I304
tp1689
a(I128
I305
tp1690
a(I129
I311
tp1691
a(I130
I315
tp1692
a(I131
I316
tp1693
a(I132
I317
tp1694
a(I133
I318
tp1695
a(I134
I319
tp1696
a(I135
I320
tp1697
a(I136
I321
tp1698
a(I137
I322
tp1699
a(I138
I323
tp1700
a(I139
I325
tp1701
a(I140
I326
tp1702
a(I141
I327
tp1703
a(I142
I328
tp1704
a(I143
I329
tp1705
a(I144
I330
tp1706
a(I145
I331
tp1707
a(I146
I332
tp1708
a(I147
I339
tp1709
a(I148
I341
tp1710
a(I149
I342
tp1711
a(I150
I343
tp1712
a(I151
I344
tp1713
a(I152
I345
tp1714
a(I153
I346
tp1715
a(I154
I347
tp1716
a(I155
I348
tp1717
a(I156
I349
tp1718
a(I157
I350
tp1719
a(I158
I351
tp1720
a(I159
I352
tp1721
a(I160
I353
tp1722
a(I161
I354
tp1723
a(I162
I355
tp1724
a(I163
I356
tp1725
a(I164
I357
tp1726
a(I165
I358
tp1727
a(I166
I359
tp1728
a(I167
I369
tp1729
a(I168
I370
tp1730
a(I169
I371
tp1731
a(I170
I372
tp1732
a(I171
I374
tp1733
a(I172
I375
tp1734
a(I173
I376
tp1735
a(I174
I377
tp1736
a(I175
I378
tp1737
a(I176
I379
tp1738
a(I177
I380
tp1739
a(I178
I381
tp1740
a(I179
I383
tp1741
a(I180
I384
tp1742
a(I181
I385
tp1743
a(I182
I386
tp1744
a(I183
I387
tp1745
a(I184
I388
tp1746
a(I185
I397
tp1747
a(I186
I398
tp1748
a(I187
I400
tp1749
a(I188
I401
tp1750
a(I189
I402
tp1751
a(I190
I403
tp1752
a(I191
I404
tp1753
a(I192
I405
tp1754
a(I193
I406
tp1755
a(I194
I407
tp1756
a(I195
I408
tp1757
a(I196
I409
tp1758
a(I197
I410
tp1759
a(I198
I412
tp1760
a(I199
I413
tp1761
a(I200
I415
tp1762
a(I201
I426
tp1763
a(I202
I427
tp1764
a(I203
I428
tp1765
a(I204
I430
tp1766
a(I205
I432
tp1767
a(I206
I433
tp1768
a(I207
I434
tp1769
a(I208
I435
tp1770
a(I209
I436
tp1771
a(I210
I437
tp1772
a(I211
I439
tp1773
a(I212
I440
tp1774
a(I213
I441
tp1775
a(I214
I442
tp1776
a(I215
I444
tp1777
a(I216
I454
tp1778
a(I217
I455
tp1779
a(I218
I456
tp1780
a(I219
I457
tp1781
a(I220
I458
tp1782
a(I221
I459
tp1783
a(I222
I460
tp1784
a(I223
I461
tp1785
a(I224
I462
tp1786
a(I225
I463
tp1787
a(I226
I464
tp1788
a(I227
I465
tp1789
a(I228
I466
tp1790
a(I229
I467
tp1791
a(I230
I468
tp1792
a(I231
I469
tp1793
a(I232
I470
tp1794
a(I233
I471
tp1795
a(I234
I481
tp1796
a(I235
I482
tp1797
a(I236
I484
tp1798
a(I237
I485
tp1799
a(I238
I486
tp1800
a(I239
I487
tp1801
a(I240
I488
tp1802
a(I241
I489
tp1803
a(I242
I490
tp1804
a(I243
I491
tp1805
a(I244
I492
tp1806
a(I245
I495
tp1807
a(I246
I496
tp1808
a(I247
I497
tp1809
a(I248
I499
tp1810
a(I249
I500
tp1811
a(I250
I508
tp1812
a(I251
I509
tp1813
a(I252
I510
tp1814
a(I253
I511
tp1815
a(I254
I512
tp1816
a(I255
I513
tp1817
a(I256
I514
tp1818
a(I257
I515
tp1819
a(I258
I516
tp1820
a(I259
I517
tp1821
a(I260
I518
tp1822
a(I261
I519
tp1823
a(I262
I520
tp1824
a(I263
I521
tp1825
a(I264
I522
tp1826
a(I265
I523
tp1827
a(I266
I524
tp1828
a(I267
I525
tp1829
a(I268
I526
tp1830
a(I269
I527
tp1831
a(I270
I528
tp1832
a(I271
I536
tp1833
a(I272
I537
tp1834
a(I273
I540
tp1835
a(I274
I541
tp1836
a(I275
I542
tp1837
a(I276
I543
tp1838
a(I277
I544
tp1839
a(I278
I545
tp1840
a(I279
I546
tp1841
a(I280
I547
tp1842
a(I281
I548
tp1843
a(I282
I549
tp1844
a(I283
I551
tp1845
a(I284
I552
tp1846
a(I285
I553
tp1847
a(I286
I554
tp1848
a(I287
I556
tp1849
a(I288
I565
tp1850
a(I289
I566
tp1851
a(I290
I567
tp1852
a(I291
I568
tp1853
a(I292
I569
tp1854
a(I293
I570
tp1855
a(I294
I571
tp1856
a(I295
I572
tp1857
a(I296
I573
tp1858
a(I297
I574
tp1859
a(I298
I575
tp1860
a(I299
I576
tp1861
a(I300
I577
tp1862
a(I302
I579
tp1863
a(I303
I580
tp1864
a(I304
I581
tp1865
a(I305
I582
tp1866
a(I306
I592
tp1867
a(I307
I593
tp1868
a(I308
I594
tp1869
a(I309
I595
tp1870
a(I310
I596
tp1871
a(I311
I597
tp1872
a(I312
I598
tp1873
a(I313
I599
tp1874
a(I314
I601
tp1875
a(I315
I602
tp1876
a(I316
I603
tp1877
a(I317
I604
tp1878
a(I318
I605
tp1879
a(I319
I606
tp1880
a(I320
I607
tp1881
a(I321
I608
tp1882
a(I322
I609
tp1883
a(I323
I610
tp1884
a(I324
I621
tp1885
a(I325
I622
tp1886
a(I326
I623
tp1887
a(I327
I624
tp1888
a(I328
I625
tp1889
a(I329
I626
tp1890
a(I330
I627
tp1891
a(I331
I628
tp1892
a(I332
I629
tp1893
a(I333
I630
tp1894
a(I334
I631
tp1895
a(I335
I632
tp1896
a(I336
I633
tp1897
a(I337
I634
tp1898
a(I338
I635
tp1899
a(I339
I636
tp1900
a(I340
I637
tp1901
a(I341
I638
tp1902
a(I342
I650
tp1903
a(I343
I651
tp1904
a(I344
I654
tp1905
a(I345
I656
tp1906
a(I346
I657
tp1907
a(I347
I658
tp1908
a(I348
I659
tp1909
a(I349
I660
tp1910
a(I350
I661
tp1911
a(I351
I662
tp1912
a(I352
I663
tp1913
a(I353
I664
tp1914
a(I354
I666
tp1915
a(I355
I677
tp1916
a(I356
I678
tp1917
a(I357
I679
tp1918
a(I358
I680
tp1919
a(I359
I681
tp1920
a(I360
I683
tp1921
a(I361
I685
tp1922
a(I362
I686
tp1923
a(I363
I687
tp1924
a(I364
I688
tp1925
a(I365
I689
tp1926
a(I366
I690
tp1927
a(I367
I691
tp1928
a(I368
I692
tp1929
a(I369
I693
tp1930
a(I370
I694
tp1931
a(I371
I707
tp1932
a(I372
I708
tp1933
a(I373
I709
tp1934
a(I374
I710
tp1935
a(I375
I711
tp1936
a(I376
I712
tp1937
a(I377
I713
tp1938
a(I378
I714
tp1939
a(I379
I715
tp1940
a(I380
I716
tp1941
a(I381
I717
tp1942
a(I382
I718
tp1943
a(I383
I719
tp1944
a(I384
I738
tp1945
a(I385
I739
tp1946
a(I386
I742
tp1947
a(I387
I743
tp1948
a(I388
I744
tp1949
a(I389
I745
tp1950
a(I390
I746
tp1951
aI933
tp1952
as.