(dp1
S'acc'
p2
(dp3
I0
(dp4
I0
(lp5
F0.23009072580645162
aF0.20010080645161291
asI1
(lp6
F0.20791330645161291
aF0.22631048387096775
asI2
(lp7
F0.23513104838709678
aF0.23714717741935484
asI3
(lp8
F0.23235887096774194
aF0.23109879032258066
asI4
(lp9
F0.203125
aF0.16809475806451613
asI5
(lp10
F0.17590725806451613
aF0.17893145161290322
asI6
(lp11
F0.16607862903225806
aF0.19027217741935484
asI7
(lp12
F0.18800403225806453
aF0.14516129032258066
asI8
(lp13
F0.11668346774193548
aF0.20665322580645162
asI9
(lp14
F0.15322580645161291
aF0.16330645161290322
assI1
(dp15
I0
(lp16
F0.22587165234967155
aF0.2385042950985346
asI1
(lp17
F0.22410308236483073
aF0.21601819100555836
asI2
(lp18
F0.22839818089944416
aF0.2541687721071248
asI3
(lp19
F0.22966144517433046
aF0.21879737241030825
asI4
(lp20
F0.21323900960080849
aF0.22789287518948964
asI5
(lp21
F0.17913087417887821
aF0.16902475997978778
asI6
(lp22
F0.15664477008590197
aF0.16801414855987873
asI7
(lp23
F0.1558868115209702
aF0.17306720565942396
asI8
(lp24
F0.20035371399696816
aF0.19833249115715007
asI9
(lp25
F0.15336028297119758
aF0.16624557857503791
assI2
(dp26
I0
(lp27
F0.24613826285135476
aF0.25905292479108633
asI1
(lp28
F0.23373005824259308
aF0.24740440617877943
asI2
(lp29
F0.30665991390225372
aF0.28184350468473029
asI3
(lp30
F0.21625728032413269
aF0.22587996961256016
asI4
(lp31
F0.22739934160546973
aF0.1977715877437326
asI5
(lp32
F0.16485186123069132
aF0.22410736895416561
asI6
(lp33
F0.21828310964801215
aF0.17295517852620917
asI7
(lp34
F0.1977715877437326
aF0.27525955938212204
asI8
(lp35
F0.2309445429222588
aF0.22537351228159028
asI9
(lp36
F0.17903266649784755
aF0.19954418840212712
assI3
(dp37
I0
(lp38
F0.31489469677746768
aF0.29408779497589443
asI1
(lp39
F0.28850545546815531
aF0.22532352194874397
asI2
(lp40
F0.232935803095661
aF0.27860948997716317
asI3
(lp41
F0.28038568891144378
aF0.30296878964729762
asI4
(lp42
F0.22836843440751078
aF0.27328089317432125
asI5
(lp43
F0.24257802588175589
aF0.25475767571682312
asI6
(lp44
F0.27277340776452674
aF0.24384673940624207
asI7
(lp45
F0.27911697538695762
aF0.23547323014463334
asI8
(lp46
F0.22887591981730526
aF0.21009895965490993
asI9
(lp47
F0.24359299670134485
aF0.27531083481349911
assI4
(dp48
I0
(lp49
F0.26805696846388605
aF0.29425228891149541
asI1
(lp50
F0.31739572736520855
aF0.26958290946083419
asI2
(lp51
F0.22609359104781282
aF0.25178026449643948
asI3
(lp52
F0.24745676500508648
aF0.2126144455747711
asI4
(lp53
F0.31561546286876907
aF0.22711088504577823
asI5
(lp54
F0.2777212614445575
aF0.29526958290946081
asI6
(lp55
F0.2380467955239064
aF0.19710071210579858
asI7
(lp56
F0.19226856561546288
aF0.26805696846388605
asI8
(lp57
F0.19862665310274669
aF0.23880976602238047
asI9
(lp58
F0.28687690742624616
aF0.1899796541200407
assI5
(dp59
I0
(lp60
F0.2751592356687898
aF0.31464968152866241
asI1
(lp61
F0.26267515923566881
aF0.27643312101910827
asI2
(lp62
F0.25070063694267514
aF0.28509554140127391
asI3
(lp63
F0.2975796178343949
aF0.22955414012738853
asI4
(lp64
F0.26751592356687898
aF0.22777070063694269
asI5
(lp65
F0.18878980891719746
aF0.25783439490445859
asI6
(lp66
F0.22496815286624203
aF0.28636942675159238
asI7
(lp67
F0.28203821656050954
aF0.30853503184713377
asI8
(lp68
F0.22140127388535033
aF0.19668789808917198
asI9
(lp69
F0.26675159235668788
aF0.2262420382165605
asssS'err'
p70
(dp71
I0
(dp72
I0
(lp73
cnumpy.core.multiarray
scalar
p74
(cnumpy
dtype
p75
(S'f8'
I0
I1
tRp76
(I3
S'<'
NNNI-1
I-1
I0
tbS'\xc4c\x101\xa9\x14\x87?'
tRp77
ag74
(g76
S'\x1d!A\x8e\x98\xf2\x87?'
tRp78
asI1
(lp79
g74
(g76
S'\x8bCxS \xbb\x87?'
tRp80
ag74
(g76
S'Y\xcbw\x8b\x88H\x87?'
tRp81
asI2
(lp82
g74
(g76
S'\xa1S\xaaUg\x93\x87?'
tRp83
ag74
(g76
S'\xf4\x8bw5Jl\x87?'
tRp84
asI3
(lp85
g74
(g76
S'k\xa2\r\xa3\x8fI\x87?'
tRp86
ag74
(g76
S'\xd1\xbe\xb2a\xbd|\x87?'
tRp87
asI4
(lp88
g74
(g76
S'\xf3\xa3.\xe7-\xdd\x87?'
tRp89
ag74
(g76
S'\x9a\xec\xddA\x9bH\x88?'
tRp90
asI5
(lp91
g74
(g76
S'\xe6@\xfc=\x7fC\x88?'
tRp92
ag74
(g76
S'$\x0f\xddR\xd6\xf0\x87?'
tRp93
asI6
(lp94
g74
(g76
S'\xd8\x17\x11j\xd4T\x88?'
tRp95
ag74
(g76
S'\x8c\x87<\xb6\xc8\xb7\x87?'
tRp96
asI7
(lp97
g74
(g76
S"\xdd\xe3J'\xe1\x00\x88?"
tRp98
ag74
(g76
S'\x86\xfe\xff\xdcN\xa8\x88?'
tRp99
asI8
(lp100
g74
(g76
S'\xe9\xfd6\xc0v\xd6\x88?'
tRp101
ag74
(g76
S'\x1f"W\xa1\xee\xc9\x87?'
tRp102
asI9
(lp103
g74
(g76
S'J\xb1u\x0ebG\x88?'
tRp104
ag74
(g76
S'\x87\xee\xd8\xd3\xf1F\x88?'
tRp105
assI1
(dp106
I0
(lp107
g74
(g76
S'\x01R\xef\xf0\x9dT\x87?'
tRp108
ag74
(g76
S'\xf3\xe4\xe7@\x82\t\x87?'
tRp109
asI1
(lp110
g74
(g76
S'gWZt9\xa0\x87?'
tRp111
ag74
(g76
S'!\t\xf4\x01\xe9\x9f\x87?'
tRp112
asI2
(lp113
g74
(g76
S'\xb8\xe1\xe1X\x83\x8f\x87?'
tRp114
ag74
(g76
S'\xc9_\xd0\x05\xb1,\x87?'
tRp115
asI3
(lp116
g74
(g76
S'\xfdI\xb8"o\x98\x87?'
tRp117
ag74
(g76
S'\xc2RFd\x86\xbb\x87?'
tRp118
asI4
(lp119
g74
(g76
S'\x9f\x08,fFs\x87?'
tRp120
ag74
(g76
S'fm\xcd\x16\xb0\x86\x87?'
tRp121
asI5
(lp122
g74
(g76
S'8L\x90\x11\x1aL\x88?'
tRp123
ag74
(g76
S"'U\xbb\xda\xe3b\x88?"
tRp124
asI6
(lp125
g74
(g76
S'\xba\xca\xbd_\x1d\xa6\x88?'
tRp126
ag74
(g76
S'\xd1Q&\xc4j%\x88?'
tRp127
asI7
(lp128
g74
(g76
S'\xebO\xb1!\xf5]\x88?'
tRp129
ag74
(g76
S'\xfbFK\xff\xbfD\x88?'
tRp130
asI8
(lp131
g74
(g76
S'\xb1-\xb3\xff\xdc\x18\x88?'
tRp132
ag74
(g76
S'`Ki\x13\xe6\xc1\x87?'
tRp133
asI9
(lp134
g74
(g76
S'I\x19v\x82\xf4?\x88?'
tRp135
ag74
(g76
S'\xf8L-?h%\x88?'
tRp136
assI2
(dp137
I0
(lp138
g74
(g76
S'\xf5O@\x1e\x0c\xf2\x86?'
tRp139
ag74
(g76
S'\xef\xef\x0f\x88\xa0\x9d\x86?'
tRp140
asI1
(lp141
g74
(g76
S'\x17&\x05\x12\xdeB\x87?'
tRp142
ag74
(g76
S'\x03@\xee\r\x91\x0b\x87?'
tRp143
asI2
(lp144
g74
(g76
S'\t\x05XL\xd0-\x86?'
tRp145
ag74
(g76
S'w\n\x88\xb8\\T\x86?'
tRp146
asI3
(lp147
g74
(g76
S'\xee.\xe0\xd4\x87\xcc\x87?'
tRp148
ag74
(g76
S'h\xceG\xc0\x9d\n\x87?'
tRp149
asI4
(lp150
g74
(g76
S'=\x84x\xb3\xf4Y\x87?'
tRp151
ag74
(g76
S'/\x84\xa7\xe7\xee\xb1\x87?'
tRp152
asI5
(lp153
g74
(g76
S'\xb5\xc8D#\x0fC\x88?'
tRp154
ag74
(g76
S'\x06Vt2r%\x87?'
tRp155
asI6
(lp156
g74
(g76
S'\x1f\xd0M\xae{\xb6\x87?'
tRp157
ag74
(g76
S'\xcdx7\xfc7\xfc\x87?'
tRp158
asI7
(lp159
g74
(g76
S'\xc0\xa8\rn\xc2\xce\x87?'
tRp160
ag74
(g76
S'~\xfe\xe6\xbeD\x85\x86?'
tRp161
asI8
(lp162
g74
(g76
S'\xc0\xc1\xe5\xc3\x8c\xe9\x86?'
tRp163
ag74
(g76
S'\xf3\xdcd#\xbak\x87?'
tRp164
asI9
(lp165
g74
(g76
S'\x00\x01\xb3\xbem/\x88?'
tRp166
ag74
(g76
S'\xb1\x85Wn\x12\xea\x87?'
tRp167
assI3
(dp168
I0
(lp169
g74
(g76
S'\x9e>Y\x0b\xa7|\x85?'
tRp170
ag74
(g76
S'\xa2)`\xbf\xa7\x08\x86?'
tRp171
asI1
(lp172
g74
(g76
S'\xae\xf5\x18\xda^B\x86?'
tRp173
ag74
(g76
S'?\xc3wV5?\x87?'
tRp174
asI2
(lp175
g74
(g76
S'xR\xb46\x08\xfe\x86?'
tRp176
ag74
(g76
S'\x7f\xe6Xg7;\x86?'
tRp177
asI3
(lp178
g74
(g76
S'\xf5\xcf\xa0\x0e\xd1\x14\x86?'
tRp179
ag74
(g76
S'\xeej@\xbcW\xc2\x85?'
tRp180
asI4
(lp181
g74
(g76
S'c\xa9Ze\x9f\x10\x87?'
tRp182
ag74
(g76
S'\xfcCg$\xaf\xc2\x86?'
tRp183
asI5
(lp184
g74
(g76
S'j\xf9\x10F\xb0\x9f\x86?'
tRp185
ag74
(g76
S'\x89\x95\xd5\x10\x86\xe0\x86?'
tRp186
asI6
(lp187
g74
(g76
S':\xcb\xca_\x18D\x86?'
tRp188
ag74
(g76
S'\x8at\x9e\xcf\xf3\xed\x86?'
tRp189
asI7
(lp190
g74
(g76
S'D\xe68x\xa3\x92\x86?'
tRp191
ag74
(g76
S'6\xe0\x19:C\xfa\x86?'
tRp192
asI8
(lp193
g74
(g76
S'H\x14\x98c1 \x87?'
tRp194
ag74
(g76
S'\x08\x99\xaf\xadzS\x87?'
tRp195
asI9
(lp196
g74
(g76
S'\xcb\x10\x92\xfa\xdb\xb1\x86?'
tRp197
ag74
(g76
S'3\xd1\x93\xf1\xb7K\x86?'
tRp198
assI4
(dp199
I0
(lp200
g74
(g76
S'\x96\x1b\t\x80\x1b\xbd\x86?'
tRp201
ag74
(g76
S'\x14\xc3AZ\xe8\x03\x86?'
tRp202
asI1
(lp203
g74
(g76
S'8\x87\x05\xe8\x0f\xea\x85?'
tRp204
ag74
(g76
S'MH(\x93J\xb4\x86?'
tRp205
asI2
(lp206
g74
(g76
S'\x9b\x8a\xa6\xd0\xd6Q\x87?'
tRp207
ag74
(g76
S'7\x1d\xb5\xd6_\xbb\x86?'
tRp208
asI3
(lp209
g74
(g76
S'\x01\x05\x93+\xf6\xd8\x86?'
tRp210
ag74
(g76
S'\x9c\xc8\xb6\xbdj\xa3\x87?'
tRp211
asI4
(lp212
g74
(g76
S'\xe1\n\xa5\xed\x1d\xa2\x85?'
tRp213
ag74
(g76
S"4|a'g\x04\x87?"
tRp214
asI5
(lp215
g74
(g76
S'\xfb\x8b\x82}\xba\x80\x86?'
tRp216
ag74
(g76
S'\x83\x93\xde&L\xe9\x85?'
tRp217
asI6
(lp218
g74
(g76
S'x\xe6/\xbc\xb7\xec\x86?'
tRp219
ag74
(g76
S'\xd6H\xea2\xa1\x8b\x87?'
tRp220
asI7
(lp221
g74
(g76
S'\x00\x1dC[w\xbf\x87?'
tRp222
ag74
(g76
S'\xb0N\x1da6\x9a\x86?'
tRp223
asI8
(lp224
g74
(g76
S'\xf6\x8c0<t\x80\x87?'
tRp225
ag74
(g76
S'!\xb9\x89q\x17\x0f\x87?'
tRp226
asI9
(lp227
g74
(g76
S'*\xca""\xeb\x85\x86?'
tRp228
ag74
(g76
S'\xa2\xe4\xfc\xf7D\x8b\x87?'
tRp229
assI5
(dp230
I0
(lp231
g74
(g76
S'D\xcb\x1e\xfd\x8c`\x86?'
tRp232
ag74
(g76
S'\x1c\xdc\xb5\x9a\xe0\xd7\x85?'
tRp233
asI1
(lp234
g74
(g76
S';E>\xae\xa0\x8e\x86?'
tRp235
ag74
(g76
S'\x84:&$\x19|\x86?'
tRp236
asI2
(lp237
g74
(g76
S'k+\xf3\xc7y\xe1\x86?'
tRp238
ag74
(g76
S'5\xf1F~\xe8T\x86?'
tRp239
asI3
(lp240
g74
(g76
S'\xcfR<d\xa7\xe5\x85?'
tRp241
ag74
(g76
S'\xdb\x19\xef\x88\x8b^\x87?'
tRp242
asI4
(lp243
g74
(g76
S'C\xc6\xa9x\x9ax\x86?'
tRp244
ag74
(g76
S'l\xba\x10J;-\x87?'
tRp245
asI5
(lp246
g74
(g76
S'\xd5N\xc3|\xdb\xca\x87?'
tRp247
ag74
(g76
S'\xde\xb2\x0f\xe5>\xb9\x86?'
tRp248
asI6
(lp249
g74
(g76
S'(\xeb%X\xc1\x12\x87?'
tRp250
ag74
(g76
S'p\x17[-Ah\x86?'
tRp251
asI7
(lp252
g74
(g76
S'\xbb#\xffm\x19b\x86?'
tRp253
ag74
(g76
S'\xe6E\xe4\xe7\xad\x97\x85?'
tRp254
asI8
(lp255
g74
(g76
S'\xb6\xae\xc3g\x9b\xe2\x86?'
tRp256
ag74
(g76
S'\x1f\xa6\xde\xb5\xaeG\x87?'
tRp257
asI9
(lp258
g74
(g76
S'\xebp\xb9\xa84t\x86?'
tRp259
ag74
(g76
S'#\x91\xf8\xc4]F\x87?'
tRp260
asss.